
Graduation_Project.elf:     file format elf32-littlearm

Sections:
Idx Name          Size      VMA       LMA       File off  Algn
  0 .isr_vector   00000194  08000000  08000000  00010000  2**0
                  CONTENTS, ALLOC, LOAD, READONLY, DATA
  1 .text         00003ee8  080001a0  080001a0  000101a0  2**4
                  CONTENTS, ALLOC, LOAD, READONLY, CODE
  2 .rodata       00000048  08004088  08004088  00014088  2**2
                  CONTENTS, ALLOC, LOAD, READONLY, DATA
  3 .ARM.extab    00000000  080040d0  080040d0  00020010  2**0
                  CONTENTS
  4 .ARM          00000000  080040d0  080040d0  00020010  2**0
                  CONTENTS
  5 .preinit_array 00000000  080040d0  080040d0  00020010  2**0
                  CONTENTS, ALLOC, LOAD, DATA
  6 .init_array   00000004  080040d0  080040d0  000140d0  2**2
                  CONTENTS, ALLOC, LOAD, DATA
  7 .fini_array   00000004  080040d4  080040d4  000140d4  2**2
                  CONTENTS, ALLOC, LOAD, DATA
  8 .data         00000010  20000000  080040d8  00020000  2**2
                  CONTENTS, ALLOC, LOAD, DATA
  9 .bss          0000ca64  20000010  080040e8  00020010  2**2
                  ALLOC
 10 ._user_heap_stack 00000604  2000ca74  080040e8  0002ca74  2**0
                  ALLOC
 11 .ARM.attributes 00000030  00000000  00000000  00020010  2**0
                  CONTENTS, READONLY
 12 .debug_info   00007d3f  00000000  00000000  00020040  2**0
                  CONTENTS, READONLY, DEBUGGING, OCTETS
 13 .debug_abbrev 000019ed  00000000  00000000  00027d7f  2**0
                  CONTENTS, READONLY, DEBUGGING, OCTETS
 14 .debug_aranges 00000810  00000000  00000000  00029770  2**3
                  CONTENTS, READONLY, DEBUGGING, OCTETS
 15 .debug_ranges 00000730  00000000  00000000  00029f80  2**3
                  CONTENTS, READONLY, DEBUGGING, OCTETS
 16 .debug_macro  000024ee  00000000  00000000  0002a6b0  2**0
                  CONTENTS, READONLY, DEBUGGING, OCTETS
 17 .debug_line   000070fa  00000000  00000000  0002cb9e  2**0
                  CONTENTS, READONLY, DEBUGGING, OCTETS
 18 .debug_str    0001239a  00000000  00000000  00033c98  2**0
                  CONTENTS, READONLY, DEBUGGING, OCTETS
 19 .comment      00000050  00000000  00000000  00046032  2**0
                  CONTENTS, READONLY
 20 .debug_frame  00001f40  00000000  00000000  00046084  2**2
                  CONTENTS, READONLY, DEBUGGING, OCTETS

Disassembly of section .text:

080001a0 <__do_global_dtors_aux>:
 80001a0:	b510      	push	{r4, lr}
 80001a2:	4c05      	ldr	r4, [pc, #20]	; (80001b8 <__do_global_dtors_aux+0x18>)
 80001a4:	7823      	ldrb	r3, [r4, #0]
 80001a6:	b933      	cbnz	r3, 80001b6 <__do_global_dtors_aux+0x16>
 80001a8:	4b04      	ldr	r3, [pc, #16]	; (80001bc <__do_global_dtors_aux+0x1c>)
 80001aa:	b113      	cbz	r3, 80001b2 <__do_global_dtors_aux+0x12>
 80001ac:	4804      	ldr	r0, [pc, #16]	; (80001c0 <__do_global_dtors_aux+0x20>)
 80001ae:	f3af 8000 	nop.w
 80001b2:	2301      	movs	r3, #1
 80001b4:	7023      	strb	r3, [r4, #0]
 80001b6:	bd10      	pop	{r4, pc}
 80001b8:	20000010 	.word	0x20000010
 80001bc:	00000000 	.word	0x00000000
 80001c0:	08004070 	.word	0x08004070

080001c4 <frame_dummy>:
 80001c4:	b508      	push	{r3, lr}
 80001c6:	4b03      	ldr	r3, [pc, #12]	; (80001d4 <frame_dummy+0x10>)
 80001c8:	b11b      	cbz	r3, 80001d2 <frame_dummy+0xe>
 80001ca:	4903      	ldr	r1, [pc, #12]	; (80001d8 <frame_dummy+0x14>)
 80001cc:	4803      	ldr	r0, [pc, #12]	; (80001dc <frame_dummy+0x18>)
 80001ce:	f3af 8000 	nop.w
 80001d2:	bd08      	pop	{r3, pc}
 80001d4:	00000000 	.word	0x00000000
 80001d8:	20000014 	.word	0x20000014
 80001dc:	08004070 	.word	0x08004070

080001e0 <DHT11_voidInitialize>:
 80001e0:	b580      	push	{r7, lr}
 80001e2:	af00      	add	r7, sp, #0
 80001e4:	4b16      	ldr	r3, [pc, #88]	; (8000240 <DHT11_voidInitialize+0x60>)
 80001e6:	2200      	movs	r2, #0
 80001e8:	711a      	strb	r2, [r3, #4]
 80001ea:	4b15      	ldr	r3, [pc, #84]	; (8000240 <DHT11_voidInitialize+0x60>)
 80001ec:	791a      	ldrb	r2, [r3, #4]
 80001ee:	4b14      	ldr	r3, [pc, #80]	; (8000240 <DHT11_voidInitialize+0x60>)
 80001f0:	70da      	strb	r2, [r3, #3]
 80001f2:	4b13      	ldr	r3, [pc, #76]	; (8000240 <DHT11_voidInitialize+0x60>)
 80001f4:	78da      	ldrb	r2, [r3, #3]
 80001f6:	4b12      	ldr	r3, [pc, #72]	; (8000240 <DHT11_voidInitialize+0x60>)
 80001f8:	709a      	strb	r2, [r3, #2]
 80001fa:	4b11      	ldr	r3, [pc, #68]	; (8000240 <DHT11_voidInitialize+0x60>)
 80001fc:	789a      	ldrb	r2, [r3, #2]
 80001fe:	4b10      	ldr	r3, [pc, #64]	; (8000240 <DHT11_voidInitialize+0x60>)
 8000200:	705a      	strb	r2, [r3, #1]
 8000202:	4b0f      	ldr	r3, [pc, #60]	; (8000240 <DHT11_voidInitialize+0x60>)
 8000204:	785a      	ldrb	r2, [r3, #1]
 8000206:	4b0e      	ldr	r3, [pc, #56]	; (8000240 <DHT11_voidInitialize+0x60>)
 8000208:	701a      	strb	r2, [r3, #0]
 800020a:	2100      	movs	r1, #0
 800020c:	2003      	movs	r0, #3
 800020e:	f001 f823 	bl	8001258 <RCC_u8Enable>
 8000212:	2201      	movs	r2, #1
 8000214:	2103      	movs	r1, #3
 8000216:	2002      	movs	r0, #2
 8000218:	f000 f99c 	bl	8000554 <GPIO_u8SetGPIOPinMode>
 800021c:	2201      	movs	r2, #1
 800021e:	2103      	movs	r1, #3
 8000220:	2002      	movs	r0, #2
 8000222:	f000 fb49 	bl	80008b8 <GPIO_u8FastControlPinValue>
 8000226:	2118      	movs	r1, #24
 8000228:	2002      	movs	r0, #2
 800022a:	f001 f9d5 	bl	80015d8 <MTIM_voidSetPrescaler>
 800022e:	2002      	movs	r0, #2
 8000230:	f001 fa66 	bl	8001700 <MTIM_voidUpdateGeneration>
 8000234:	2002      	movs	r0, #2
 8000236:	f001 fa7d 	bl	8001734 <MTIM_voidclearUpdateInterrupt>
 800023a:	bf00      	nop
 800023c:	bd80      	pop	{r7, pc}
 800023e:	bf00      	nop
 8000240:	2000002c 	.word	0x2000002c

08000244 <DHT11_voidRawDataUpdate>:
 8000244:	b580      	push	{r7, lr}
 8000246:	b082      	sub	sp, #8
 8000248:	af00      	add	r7, sp, #0
 800024a:	2201      	movs	r2, #1
 800024c:	2103      	movs	r1, #3
 800024e:	2002      	movs	r0, #2
 8000250:	f000 f980 	bl	8000554 <GPIO_u8SetGPIOPinMode>
 8000254:	2200      	movs	r2, #0
 8000256:	2103      	movs	r1, #3
 8000258:	2002      	movs	r0, #2
 800025a:	f000 fb2d 	bl	80008b8 <GPIO_u8FastControlPinValue>
 800025e:	2112      	movs	r1, #18
 8000260:	2002      	movs	r0, #2
 8000262:	f001 f985 	bl	8001570 <HTIM_voidDelayMilliseconds>
 8000266:	2300      	movs	r3, #0
 8000268:	2218      	movs	r2, #24
 800026a:	f64f 71ff 	movw	r1, #65535	; 0xffff
 800026e:	2002      	movs	r0, #2
 8000270:	f001 f948 	bl	8001504 <HTIM_voidChangeAndUpdateTiming>
 8000274:	2200      	movs	r2, #0
 8000276:	2103      	movs	r1, #3
 8000278:	2002      	movs	r0, #2
 800027a:	f000 f96b 	bl	8000554 <GPIO_u8SetGPIOPinMode>
 800027e:	2201      	movs	r2, #1
 8000280:	2103      	movs	r1, #3
 8000282:	2002      	movs	r0, #2
 8000284:	f000 fbfa 	bl	8000a7c <GPIO_u8SetPullResMode>
 8000288:	2002      	movs	r0, #2
 800028a:	f001 f993 	bl	80015b4 <MTIM_u32ReadCounterValue>
 800028e:	4603      	mov	r3, r0
 8000290:	4a5e      	ldr	r2, [pc, #376]	; (800040c <DHT11_voidRawDataUpdate+0x1c8>)
 8000292:	6013      	str	r3, [r2, #0]
 8000294:	4b5e      	ldr	r3, [pc, #376]	; (8000410 <DHT11_voidRawDataUpdate+0x1cc>)
 8000296:	691b      	ldr	r3, [r3, #16]
 8000298:	08db      	lsrs	r3, r3, #3
 800029a:	b2db      	uxtb	r3, r3
 800029c:	f003 0301 	and.w	r3, r3, #1
 80002a0:	b2da      	uxtb	r2, r3
 80002a2:	4b5c      	ldr	r3, [pc, #368]	; (8000414 <DHT11_voidRawDataUpdate+0x1d0>)
 80002a4:	701a      	strb	r2, [r3, #0]
 80002a6:	4b5b      	ldr	r3, [pc, #364]	; (8000414 <DHT11_voidRawDataUpdate+0x1d0>)
 80002a8:	781b      	ldrb	r3, [r3, #0]
 80002aa:	2b01      	cmp	r3, #1
 80002ac:	d105      	bne.n	80002ba <DHT11_voidRawDataUpdate+0x76>
 80002ae:	2002      	movs	r0, #2
 80002b0:	f001 fa5a 	bl	8001768 <MTIM_u8ReadUpdateInterrupt>
 80002b4:	4603      	mov	r3, r0
 80002b6:	2b00      	cmp	r3, #0
 80002b8:	d0ec      	beq.n	8000294 <DHT11_voidRawDataUpdate+0x50>
 80002ba:	2002      	movs	r0, #2
 80002bc:	f001 f97a 	bl	80015b4 <MTIM_u32ReadCounterValue>
 80002c0:	4603      	mov	r3, r0
 80002c2:	4a55      	ldr	r2, [pc, #340]	; (8000418 <DHT11_voidRawDataUpdate+0x1d4>)
 80002c4:	6013      	str	r3, [r2, #0]
 80002c6:	4b54      	ldr	r3, [pc, #336]	; (8000418 <DHT11_voidRawDataUpdate+0x1d4>)
 80002c8:	681a      	ldr	r2, [r3, #0]
 80002ca:	4b50      	ldr	r3, [pc, #320]	; (800040c <DHT11_voidRawDataUpdate+0x1c8>)
 80002cc:	681b      	ldr	r3, [r3, #0]
 80002ce:	1ad3      	subs	r3, r2, r3
 80002d0:	4a52      	ldr	r2, [pc, #328]	; (800041c <DHT11_voidRawDataUpdate+0x1d8>)
 80002d2:	6013      	str	r3, [r2, #0]
 80002d4:	4b51      	ldr	r3, [pc, #324]	; (800041c <DHT11_voidRawDataUpdate+0x1d8>)
 80002d6:	681b      	ldr	r3, [r3, #0]
 80002d8:	2b2a      	cmp	r3, #42	; 0x2a
 80002da:	d805      	bhi.n	80002e8 <DHT11_voidRawDataUpdate+0xa4>
 80002dc:	2002      	movs	r0, #2
 80002de:	f001 fa43 	bl	8001768 <MTIM_u8ReadUpdateInterrupt>
 80002e2:	4603      	mov	r3, r0
 80002e4:	2b01      	cmp	r3, #1
 80002e6:	d101      	bne.n	80002ec <DHT11_voidRawDataUpdate+0xa8>
 80002e8:	2301      	movs	r3, #1
 80002ea:	e08b      	b.n	8000404 <DHT11_voidRawDataUpdate+0x1c0>
 80002ec:	2002      	movs	r0, #2
 80002ee:	f001 f961 	bl	80015b4 <MTIM_u32ReadCounterValue>
 80002f2:	4603      	mov	r3, r0
 80002f4:	4a45      	ldr	r2, [pc, #276]	; (800040c <DHT11_voidRawDataUpdate+0x1c8>)
 80002f6:	6013      	str	r3, [r2, #0]
 80002f8:	4b45      	ldr	r3, [pc, #276]	; (8000410 <DHT11_voidRawDataUpdate+0x1cc>)
 80002fa:	691b      	ldr	r3, [r3, #16]
 80002fc:	08db      	lsrs	r3, r3, #3
 80002fe:	b2db      	uxtb	r3, r3
 8000300:	f003 0301 	and.w	r3, r3, #1
 8000304:	b2da      	uxtb	r2, r3
 8000306:	4b43      	ldr	r3, [pc, #268]	; (8000414 <DHT11_voidRawDataUpdate+0x1d0>)
 8000308:	701a      	strb	r2, [r3, #0]
 800030a:	4b42      	ldr	r3, [pc, #264]	; (8000414 <DHT11_voidRawDataUpdate+0x1d0>)
 800030c:	781b      	ldrb	r3, [r3, #0]
 800030e:	2b00      	cmp	r3, #0
 8000310:	d105      	bne.n	800031e <DHT11_voidRawDataUpdate+0xda>
 8000312:	2002      	movs	r0, #2
 8000314:	f001 fa28 	bl	8001768 <MTIM_u8ReadUpdateInterrupt>
 8000318:	4603      	mov	r3, r0
 800031a:	2b00      	cmp	r3, #0
 800031c:	d0ec      	beq.n	80002f8 <DHT11_voidRawDataUpdate+0xb4>
 800031e:	2002      	movs	r0, #2
 8000320:	f001 f948 	bl	80015b4 <MTIM_u32ReadCounterValue>
 8000324:	4603      	mov	r3, r0
 8000326:	4a3c      	ldr	r2, [pc, #240]	; (8000418 <DHT11_voidRawDataUpdate+0x1d4>)
 8000328:	6013      	str	r3, [r2, #0]
 800032a:	4b3b      	ldr	r3, [pc, #236]	; (8000418 <DHT11_voidRawDataUpdate+0x1d4>)
 800032c:	681a      	ldr	r2, [r3, #0]
 800032e:	4b37      	ldr	r3, [pc, #220]	; (800040c <DHT11_voidRawDataUpdate+0x1c8>)
 8000330:	681b      	ldr	r3, [r3, #0]
 8000332:	1ad3      	subs	r3, r2, r3
 8000334:	4a39      	ldr	r2, [pc, #228]	; (800041c <DHT11_voidRawDataUpdate+0x1d8>)
 8000336:	6013      	str	r3, [r2, #0]
 8000338:	4b38      	ldr	r3, [pc, #224]	; (800041c <DHT11_voidRawDataUpdate+0x1d8>)
 800033a:	681b      	ldr	r3, [r3, #0]
 800033c:	2b52      	cmp	r3, #82	; 0x52
 800033e:	d805      	bhi.n	800034c <DHT11_voidRawDataUpdate+0x108>
 8000340:	2002      	movs	r0, #2
 8000342:	f001 fa11 	bl	8001768 <MTIM_u8ReadUpdateInterrupt>
 8000346:	4603      	mov	r3, r0
 8000348:	2b01      	cmp	r3, #1
 800034a:	d101      	bne.n	8000350 <DHT11_voidRawDataUpdate+0x10c>
 800034c:	2301      	movs	r3, #1
 800034e:	e059      	b.n	8000404 <DHT11_voidRawDataUpdate+0x1c0>
 8000350:	2002      	movs	r0, #2
 8000352:	f001 f92f 	bl	80015b4 <MTIM_u32ReadCounterValue>
 8000356:	4603      	mov	r3, r0
 8000358:	4a2c      	ldr	r2, [pc, #176]	; (800040c <DHT11_voidRawDataUpdate+0x1c8>)
 800035a:	6013      	str	r3, [r2, #0]
 800035c:	4a2d      	ldr	r2, [pc, #180]	; (8000414 <DHT11_voidRawDataUpdate+0x1d0>)
 800035e:	2103      	movs	r1, #3
 8000360:	2002      	movs	r0, #2
 8000362:	f000 fb27 	bl	80009b4 <GPIO_u8GetPinValue>
 8000366:	4b2b      	ldr	r3, [pc, #172]	; (8000414 <DHT11_voidRawDataUpdate+0x1d0>)
 8000368:	781b      	ldrb	r3, [r3, #0]
 800036a:	2b01      	cmp	r3, #1
 800036c:	d105      	bne.n	800037a <DHT11_voidRawDataUpdate+0x136>
 800036e:	2002      	movs	r0, #2
 8000370:	f001 f9fa 	bl	8001768 <MTIM_u8ReadUpdateInterrupt>
 8000374:	4603      	mov	r3, r0
 8000376:	2b00      	cmp	r3, #0
 8000378:	d0f0      	beq.n	800035c <DHT11_voidRawDataUpdate+0x118>
 800037a:	2002      	movs	r0, #2
 800037c:	f001 f91a 	bl	80015b4 <MTIM_u32ReadCounterValue>
 8000380:	4603      	mov	r3, r0
 8000382:	4a25      	ldr	r2, [pc, #148]	; (8000418 <DHT11_voidRawDataUpdate+0x1d4>)
 8000384:	6013      	str	r3, [r2, #0]
 8000386:	4b24      	ldr	r3, [pc, #144]	; (8000418 <DHT11_voidRawDataUpdate+0x1d4>)
 8000388:	681a      	ldr	r2, [r3, #0]
 800038a:	4b20      	ldr	r3, [pc, #128]	; (800040c <DHT11_voidRawDataUpdate+0x1c8>)
 800038c:	681b      	ldr	r3, [r3, #0]
 800038e:	1ad3      	subs	r3, r2, r3
 8000390:	4a22      	ldr	r2, [pc, #136]	; (800041c <DHT11_voidRawDataUpdate+0x1d8>)
 8000392:	6013      	str	r3, [r2, #0]
 8000394:	4b21      	ldr	r3, [pc, #132]	; (800041c <DHT11_voidRawDataUpdate+0x1d8>)
 8000396:	681b      	ldr	r3, [r3, #0]
 8000398:	2b5a      	cmp	r3, #90	; 0x5a
 800039a:	d805      	bhi.n	80003a8 <DHT11_voidRawDataUpdate+0x164>
 800039c:	2002      	movs	r0, #2
 800039e:	f001 f9e3 	bl	8001768 <MTIM_u8ReadUpdateInterrupt>
 80003a2:	4603      	mov	r3, r0
 80003a4:	2b01      	cmp	r3, #1
 80003a6:	d101      	bne.n	80003ac <DHT11_voidRawDataUpdate+0x168>
 80003a8:	2301      	movs	r3, #1
 80003aa:	e02b      	b.n	8000404 <DHT11_voidRawDataUpdate+0x1c0>
 80003ac:	2300      	movs	r3, #0
 80003ae:	71fb      	strb	r3, [r7, #7]
 80003b0:	e01a      	b.n	80003e8 <DHT11_voidRawDataUpdate+0x1a4>
 80003b2:	79fb      	ldrb	r3, [r7, #7]
 80003b4:	08db      	lsrs	r3, r3, #3
 80003b6:	b2da      	uxtb	r2, r3
 80003b8:	4611      	mov	r1, r2
 80003ba:	4b19      	ldr	r3, [pc, #100]	; (8000420 <DHT11_voidRawDataUpdate+0x1dc>)
 80003bc:	5c5b      	ldrb	r3, [r3, r1]
 80003be:	005b      	lsls	r3, r3, #1
 80003c0:	b2d9      	uxtb	r1, r3
 80003c2:	4b17      	ldr	r3, [pc, #92]	; (8000420 <DHT11_voidRawDataUpdate+0x1dc>)
 80003c4:	5499      	strb	r1, [r3, r2]
 80003c6:	f000 f857 	bl	8000478 <DHT11_u8Decoder>
 80003ca:	4603      	mov	r3, r0
 80003cc:	4619      	mov	r1, r3
 80003ce:	79fb      	ldrb	r3, [r7, #7]
 80003d0:	08db      	lsrs	r3, r3, #3
 80003d2:	b2da      	uxtb	r2, r3
 80003d4:	4610      	mov	r0, r2
 80003d6:	4b12      	ldr	r3, [pc, #72]	; (8000420 <DHT11_voidRawDataUpdate+0x1dc>)
 80003d8:	5c1b      	ldrb	r3, [r3, r0]
 80003da:	440b      	add	r3, r1
 80003dc:	b2d9      	uxtb	r1, r3
 80003de:	4b10      	ldr	r3, [pc, #64]	; (8000420 <DHT11_voidRawDataUpdate+0x1dc>)
 80003e0:	5499      	strb	r1, [r3, r2]
 80003e2:	79fb      	ldrb	r3, [r7, #7]
 80003e4:	3301      	adds	r3, #1
 80003e6:	71fb      	strb	r3, [r7, #7]
 80003e8:	79fb      	ldrb	r3, [r7, #7]
 80003ea:	2b27      	cmp	r3, #39	; 0x27
 80003ec:	d9e1      	bls.n	80003b2 <DHT11_voidRawDataUpdate+0x16e>
 80003ee:	2201      	movs	r2, #1
 80003f0:	2103      	movs	r1, #3
 80003f2:	2002      	movs	r0, #2
 80003f4:	f000 f8ae 	bl	8000554 <GPIO_u8SetGPIOPinMode>
 80003f8:	2201      	movs	r2, #1
 80003fa:	2103      	movs	r1, #3
 80003fc:	2002      	movs	r0, #2
 80003fe:	f000 f9c3 	bl	8000788 <GPIO_u8SetPinValue>
 8000402:	2300      	movs	r3, #0
 8000404:	4618      	mov	r0, r3
 8000406:	3708      	adds	r7, #8
 8000408:	46bd      	mov	sp, r7
 800040a:	bd80      	pop	{r7, pc}
 800040c:	20000034 	.word	0x20000034
 8000410:	40020400 	.word	0x40020400
 8000414:	20000031 	.word	0x20000031
 8000418:	20000038 	.word	0x20000038
 800041c:	2000003c 	.word	0x2000003c
 8000420:	2000002c 	.word	0x2000002c

08000424 <DHT11_u8GetReadings>:
 8000424:	b480      	push	{r7}
 8000426:	b083      	sub	sp, #12
 8000428:	af00      	add	r7, sp, #0
 800042a:	6078      	str	r0, [r7, #4]
 800042c:	6039      	str	r1, [r7, #0]
 800042e:	4b11      	ldr	r3, [pc, #68]	; (8000474 <DHT11_u8GetReadings+0x50>)
 8000430:	781b      	ldrb	r3, [r3, #0]
 8000432:	461a      	mov	r2, r3
 8000434:	4b0f      	ldr	r3, [pc, #60]	; (8000474 <DHT11_u8GetReadings+0x50>)
 8000436:	785b      	ldrb	r3, [r3, #1]
 8000438:	4413      	add	r3, r2
 800043a:	4a0e      	ldr	r2, [pc, #56]	; (8000474 <DHT11_u8GetReadings+0x50>)
 800043c:	7892      	ldrb	r2, [r2, #2]
 800043e:	4413      	add	r3, r2
 8000440:	4a0c      	ldr	r2, [pc, #48]	; (8000474 <DHT11_u8GetReadings+0x50>)
 8000442:	78d2      	ldrb	r2, [r2, #3]
 8000444:	4413      	add	r3, r2
 8000446:	4a0b      	ldr	r2, [pc, #44]	; (8000474 <DHT11_u8GetReadings+0x50>)
 8000448:	7912      	ldrb	r2, [r2, #4]
 800044a:	4293      	cmp	r3, r2
 800044c:	d001      	beq.n	8000452 <DHT11_u8GetReadings+0x2e>
 800044e:	2302      	movs	r3, #2
 8000450:	e009      	b.n	8000466 <DHT11_u8GetReadings+0x42>
 8000452:	4b08      	ldr	r3, [pc, #32]	; (8000474 <DHT11_u8GetReadings+0x50>)
 8000454:	781a      	ldrb	r2, [r3, #0]
 8000456:	687b      	ldr	r3, [r7, #4]
 8000458:	701a      	strb	r2, [r3, #0]
 800045a:	4b06      	ldr	r3, [pc, #24]	; (8000474 <DHT11_u8GetReadings+0x50>)
 800045c:	789b      	ldrb	r3, [r3, #2]
 800045e:	b25a      	sxtb	r2, r3
 8000460:	683b      	ldr	r3, [r7, #0]
 8000462:	701a      	strb	r2, [r3, #0]
 8000464:	2300      	movs	r3, #0
 8000466:	4618      	mov	r0, r3
 8000468:	370c      	adds	r7, #12
 800046a:	46bd      	mov	sp, r7
 800046c:	f85d 7b04 	ldr.w	r7, [sp], #4
 8000470:	4770      	bx	lr
 8000472:	bf00      	nop
 8000474:	2000002c 	.word	0x2000002c

08000478 <DHT11_u8Decoder>:
 8000478:	b580      	push	{r7, lr}
 800047a:	af00      	add	r7, sp, #0
 800047c:	4b23      	ldr	r3, [pc, #140]	; (800050c <DHT11_u8Decoder+0x94>)
 800047e:	691b      	ldr	r3, [r3, #16]
 8000480:	08db      	lsrs	r3, r3, #3
 8000482:	b2db      	uxtb	r3, r3
 8000484:	f003 0301 	and.w	r3, r3, #1
 8000488:	b2da      	uxtb	r2, r3
 800048a:	4b21      	ldr	r3, [pc, #132]	; (8000510 <DHT11_u8Decoder+0x98>)
 800048c:	701a      	strb	r2, [r3, #0]
 800048e:	4b20      	ldr	r3, [pc, #128]	; (8000510 <DHT11_u8Decoder+0x98>)
 8000490:	781b      	ldrb	r3, [r3, #0]
 8000492:	2b00      	cmp	r3, #0
 8000494:	d105      	bne.n	80004a2 <DHT11_u8Decoder+0x2a>
 8000496:	2002      	movs	r0, #2
 8000498:	f001 f966 	bl	8001768 <MTIM_u8ReadUpdateInterrupt>
 800049c:	4603      	mov	r3, r0
 800049e:	2b00      	cmp	r3, #0
 80004a0:	d0ec      	beq.n	800047c <DHT11_u8Decoder+0x4>
 80004a2:	2002      	movs	r0, #2
 80004a4:	f001 f886 	bl	80015b4 <MTIM_u32ReadCounterValue>
 80004a8:	4603      	mov	r3, r0
 80004aa:	4a1a      	ldr	r2, [pc, #104]	; (8000514 <DHT11_u8Decoder+0x9c>)
 80004ac:	6013      	str	r3, [r2, #0]
 80004ae:	4b17      	ldr	r3, [pc, #92]	; (800050c <DHT11_u8Decoder+0x94>)
 80004b0:	691b      	ldr	r3, [r3, #16]
 80004b2:	08db      	lsrs	r3, r3, #3
 80004b4:	b2db      	uxtb	r3, r3
 80004b6:	f003 0301 	and.w	r3, r3, #1
 80004ba:	b2da      	uxtb	r2, r3
 80004bc:	4b14      	ldr	r3, [pc, #80]	; (8000510 <DHT11_u8Decoder+0x98>)
 80004be:	701a      	strb	r2, [r3, #0]
 80004c0:	4b13      	ldr	r3, [pc, #76]	; (8000510 <DHT11_u8Decoder+0x98>)
 80004c2:	781b      	ldrb	r3, [r3, #0]
 80004c4:	2b01      	cmp	r3, #1
 80004c6:	d105      	bne.n	80004d4 <DHT11_u8Decoder+0x5c>
 80004c8:	2002      	movs	r0, #2
 80004ca:	f001 f94d 	bl	8001768 <MTIM_u8ReadUpdateInterrupt>
 80004ce:	4603      	mov	r3, r0
 80004d0:	2b00      	cmp	r3, #0
 80004d2:	d0ec      	beq.n	80004ae <DHT11_u8Decoder+0x36>
 80004d4:	2002      	movs	r0, #2
 80004d6:	f001 f86d 	bl	80015b4 <MTIM_u32ReadCounterValue>
 80004da:	4603      	mov	r3, r0
 80004dc:	4a0e      	ldr	r2, [pc, #56]	; (8000518 <DHT11_u8Decoder+0xa0>)
 80004de:	6013      	str	r3, [r2, #0]
 80004e0:	4b0d      	ldr	r3, [pc, #52]	; (8000518 <DHT11_u8Decoder+0xa0>)
 80004e2:	681a      	ldr	r2, [r3, #0]
 80004e4:	4b0b      	ldr	r3, [pc, #44]	; (8000514 <DHT11_u8Decoder+0x9c>)
 80004e6:	681b      	ldr	r3, [r3, #0]
 80004e8:	1ad3      	subs	r3, r2, r3
 80004ea:	4a0c      	ldr	r2, [pc, #48]	; (800051c <DHT11_u8Decoder+0xa4>)
 80004ec:	6013      	str	r3, [r2, #0]
 80004ee:	4b0b      	ldr	r3, [pc, #44]	; (800051c <DHT11_u8Decoder+0xa4>)
 80004f0:	681b      	ldr	r3, [r3, #0]
 80004f2:	2b23      	cmp	r3, #35	; 0x23
 80004f4:	d805      	bhi.n	8000502 <DHT11_u8Decoder+0x8a>
 80004f6:	2002      	movs	r0, #2
 80004f8:	f001 f936 	bl	8001768 <MTIM_u8ReadUpdateInterrupt>
 80004fc:	4603      	mov	r3, r0
 80004fe:	2b01      	cmp	r3, #1
 8000500:	d101      	bne.n	8000506 <DHT11_u8Decoder+0x8e>
 8000502:	2301      	movs	r3, #1
 8000504:	e000      	b.n	8000508 <DHT11_u8Decoder+0x90>
 8000506:	2300      	movs	r3, #0
 8000508:	4618      	mov	r0, r3
 800050a:	bd80      	pop	{r7, pc}
 800050c:	40020400 	.word	0x40020400
 8000510:	20000031 	.word	0x20000031
 8000514:	20000034 	.word	0x20000034
 8000518:	20000038 	.word	0x20000038
 800051c:	2000003c 	.word	0x2000003c

08000520 <DigitalSensor_u8Sensing>:
 8000520:	b580      	push	{r7, lr}
 8000522:	b084      	sub	sp, #16
 8000524:	af00      	add	r7, sp, #0
 8000526:	7138      	strb	r0, [r7, #4]
 8000528:	2300      	movs	r3, #0
 800052a:	73fb      	strb	r3, [r7, #15]
 800052c:	793b      	ldrb	r3, [r7, #4]
 800052e:	f3c3 0301 	ubfx	r3, r3, #0, #2
 8000532:	b2db      	uxtb	r3, r3
 8000534:	4618      	mov	r0, r3
 8000536:	793b      	ldrb	r3, [r7, #4]
 8000538:	f3c3 0383 	ubfx	r3, r3, #2, #4
 800053c:	b2db      	uxtb	r3, r3
 800053e:	4619      	mov	r1, r3
 8000540:	f107 030f 	add.w	r3, r7, #15
 8000544:	461a      	mov	r2, r3
 8000546:	f000 fa35 	bl	80009b4 <GPIO_u8GetPinValue>
 800054a:	7bfb      	ldrb	r3, [r7, #15]
 800054c:	4618      	mov	r0, r3
 800054e:	3710      	adds	r7, #16
 8000550:	46bd      	mov	sp, r7
 8000552:	bd80      	pop	{r7, pc}

08000554 <GPIO_u8SetGPIOPinMode>:
 8000554:	b480      	push	{r7}
 8000556:	b085      	sub	sp, #20
 8000558:	af00      	add	r7, sp, #0
 800055a:	4603      	mov	r3, r0
 800055c:	71fb      	strb	r3, [r7, #7]
 800055e:	460b      	mov	r3, r1
 8000560:	71bb      	strb	r3, [r7, #6]
 8000562:	4613      	mov	r3, r2
 8000564:	717b      	strb	r3, [r7, #5]
 8000566:	2300      	movs	r3, #0
 8000568:	73fb      	strb	r3, [r7, #15]
 800056a:	79fb      	ldrb	r3, [r7, #7]
 800056c:	2b01      	cmp	r3, #1
 800056e:	d102      	bne.n	8000576 <GPIO_u8SetGPIOPinMode+0x22>
 8000570:	79bb      	ldrb	r3, [r7, #6]
 8000572:	2b0f      	cmp	r3, #15
 8000574:	d90e      	bls.n	8000594 <GPIO_u8SetGPIOPinMode+0x40>
 8000576:	79fb      	ldrb	r3, [r7, #7]
 8000578:	2b02      	cmp	r3, #2
 800057a:	d102      	bne.n	8000582 <GPIO_u8SetGPIOPinMode+0x2e>
 800057c:	79bb      	ldrb	r3, [r7, #6]
 800057e:	2b0f      	cmp	r3, #15
 8000580:	d908      	bls.n	8000594 <GPIO_u8SetGPIOPinMode+0x40>
 8000582:	79fb      	ldrb	r3, [r7, #7]
 8000584:	2b03      	cmp	r3, #3
 8000586:	d157      	bne.n	8000638 <GPIO_u8SetGPIOPinMode+0xe4>
 8000588:	79bb      	ldrb	r3, [r7, #6]
 800058a:	2b0c      	cmp	r3, #12
 800058c:	d802      	bhi.n	8000594 <GPIO_u8SetGPIOPinMode+0x40>
 800058e:	79bb      	ldrb	r3, [r7, #6]
 8000590:	2b0f      	cmp	r3, #15
 8000592:	d851      	bhi.n	8000638 <GPIO_u8SetGPIOPinMode+0xe4>
 8000594:	79bb      	ldrb	r3, [r7, #6]
 8000596:	005b      	lsls	r3, r3, #1
 8000598:	71bb      	strb	r3, [r7, #6]
 800059a:	79fb      	ldrb	r3, [r7, #7]
 800059c:	2b03      	cmp	r3, #3
 800059e:	d032      	beq.n	8000606 <GPIO_u8SetGPIOPinMode+0xb2>
 80005a0:	2b03      	cmp	r3, #3
 80005a2:	dc45      	bgt.n	8000630 <GPIO_u8SetGPIOPinMode+0xdc>
 80005a4:	2b01      	cmp	r3, #1
 80005a6:	d002      	beq.n	80005ae <GPIO_u8SetGPIOPinMode+0x5a>
 80005a8:	2b02      	cmp	r3, #2
 80005aa:	d016      	beq.n	80005da <GPIO_u8SetGPIOPinMode+0x86>
 80005ac:	e040      	b.n	8000630 <GPIO_u8SetGPIOPinMode+0xdc>
 80005ae:	4b27      	ldr	r3, [pc, #156]	; (800064c <GPIO_u8SetGPIOPinMode+0xf8>)
 80005b0:	681b      	ldr	r3, [r3, #0]
 80005b2:	79ba      	ldrb	r2, [r7, #6]
 80005b4:	2103      	movs	r1, #3
 80005b6:	fa01 f202 	lsl.w	r2, r1, r2
 80005ba:	43d2      	mvns	r2, r2
 80005bc:	4611      	mov	r1, r2
 80005be:	4a23      	ldr	r2, [pc, #140]	; (800064c <GPIO_u8SetGPIOPinMode+0xf8>)
 80005c0:	400b      	ands	r3, r1
 80005c2:	6013      	str	r3, [r2, #0]
 80005c4:	4b21      	ldr	r3, [pc, #132]	; (800064c <GPIO_u8SetGPIOPinMode+0xf8>)
 80005c6:	681b      	ldr	r3, [r3, #0]
 80005c8:	7979      	ldrb	r1, [r7, #5]
 80005ca:	79ba      	ldrb	r2, [r7, #6]
 80005cc:	fa01 f202 	lsl.w	r2, r1, r2
 80005d0:	4611      	mov	r1, r2
 80005d2:	4a1e      	ldr	r2, [pc, #120]	; (800064c <GPIO_u8SetGPIOPinMode+0xf8>)
 80005d4:	430b      	orrs	r3, r1
 80005d6:	6013      	str	r3, [r2, #0]
 80005d8:	e02d      	b.n	8000636 <GPIO_u8SetGPIOPinMode+0xe2>
 80005da:	4b1d      	ldr	r3, [pc, #116]	; (8000650 <GPIO_u8SetGPIOPinMode+0xfc>)
 80005dc:	681b      	ldr	r3, [r3, #0]
 80005de:	79ba      	ldrb	r2, [r7, #6]
 80005e0:	2103      	movs	r1, #3
 80005e2:	fa01 f202 	lsl.w	r2, r1, r2
 80005e6:	43d2      	mvns	r2, r2
 80005e8:	4611      	mov	r1, r2
 80005ea:	4a19      	ldr	r2, [pc, #100]	; (8000650 <GPIO_u8SetGPIOPinMode+0xfc>)
 80005ec:	400b      	ands	r3, r1
 80005ee:	6013      	str	r3, [r2, #0]
 80005f0:	4b17      	ldr	r3, [pc, #92]	; (8000650 <GPIO_u8SetGPIOPinMode+0xfc>)
 80005f2:	681b      	ldr	r3, [r3, #0]
 80005f4:	7979      	ldrb	r1, [r7, #5]
 80005f6:	79ba      	ldrb	r2, [r7, #6]
 80005f8:	fa01 f202 	lsl.w	r2, r1, r2
 80005fc:	4611      	mov	r1, r2
 80005fe:	4a14      	ldr	r2, [pc, #80]	; (8000650 <GPIO_u8SetGPIOPinMode+0xfc>)
 8000600:	430b      	orrs	r3, r1
 8000602:	6013      	str	r3, [r2, #0]
 8000604:	e017      	b.n	8000636 <GPIO_u8SetGPIOPinMode+0xe2>
 8000606:	4b13      	ldr	r3, [pc, #76]	; (8000654 <GPIO_u8SetGPIOPinMode+0x100>)
 8000608:	681b      	ldr	r3, [r3, #0]
 800060a:	79ba      	ldrb	r2, [r7, #6]
 800060c:	2103      	movs	r1, #3
 800060e:	fa01 f202 	lsl.w	r2, r1, r2
 8000612:	43d2      	mvns	r2, r2
 8000614:	4611      	mov	r1, r2
 8000616:	4a0f      	ldr	r2, [pc, #60]	; (8000654 <GPIO_u8SetGPIOPinMode+0x100>)
 8000618:	400b      	ands	r3, r1
 800061a:	6013      	str	r3, [r2, #0]
 800061c:	4b0d      	ldr	r3, [pc, #52]	; (8000654 <GPIO_u8SetGPIOPinMode+0x100>)
 800061e:	681b      	ldr	r3, [r3, #0]
 8000620:	7979      	ldrb	r1, [r7, #5]
 8000622:	79ba      	ldrb	r2, [r7, #6]
 8000624:	fa01 f202 	lsl.w	r2, r1, r2
 8000628:	4611      	mov	r1, r2
 800062a:	4a0a      	ldr	r2, [pc, #40]	; (8000654 <GPIO_u8SetGPIOPinMode+0x100>)
 800062c:	430b      	orrs	r3, r1
 800062e:	6013      	str	r3, [r2, #0]
 8000630:	2304      	movs	r3, #4
 8000632:	73fb      	strb	r3, [r7, #15]
 8000634:	bf00      	nop
 8000636:	e001      	b.n	800063c <GPIO_u8SetGPIOPinMode+0xe8>
 8000638:	2304      	movs	r3, #4
 800063a:	73fb      	strb	r3, [r7, #15]
 800063c:	7bfb      	ldrb	r3, [r7, #15]
 800063e:	4618      	mov	r0, r3
 8000640:	3714      	adds	r7, #20
 8000642:	46bd      	mov	sp, r7
 8000644:	f85d 7b04 	ldr.w	r7, [sp], #4
 8000648:	4770      	bx	lr
 800064a:	bf00      	nop
 800064c:	40020000 	.word	0x40020000
 8000650:	40020400 	.word	0x40020400
 8000654:	40020800 	.word	0x40020800

08000658 <GPIO_u8SetOutputPinMode>:
 8000658:	b480      	push	{r7}
 800065a:	b085      	sub	sp, #20
 800065c:	af00      	add	r7, sp, #0
 800065e:	4603      	mov	r3, r0
 8000660:	71fb      	strb	r3, [r7, #7]
 8000662:	460b      	mov	r3, r1
 8000664:	71bb      	strb	r3, [r7, #6]
 8000666:	4613      	mov	r3, r2
 8000668:	717b      	strb	r3, [r7, #5]
 800066a:	2300      	movs	r3, #0
 800066c:	73fb      	strb	r3, [r7, #15]
 800066e:	79fb      	ldrb	r3, [r7, #7]
 8000670:	2b01      	cmp	r3, #1
 8000672:	d102      	bne.n	800067a <GPIO_u8SetOutputPinMode+0x22>
 8000674:	79bb      	ldrb	r3, [r7, #6]
 8000676:	2b0f      	cmp	r3, #15
 8000678:	d90e      	bls.n	8000698 <GPIO_u8SetOutputPinMode+0x40>
 800067a:	79fb      	ldrb	r3, [r7, #7]
 800067c:	2b02      	cmp	r3, #2
 800067e:	d102      	bne.n	8000686 <GPIO_u8SetOutputPinMode+0x2e>
 8000680:	79bb      	ldrb	r3, [r7, #6]
 8000682:	2b0f      	cmp	r3, #15
 8000684:	d908      	bls.n	8000698 <GPIO_u8SetOutputPinMode+0x40>
 8000686:	79fb      	ldrb	r3, [r7, #7]
 8000688:	2b03      	cmp	r3, #3
 800068a:	d16e      	bne.n	800076a <GPIO_u8SetOutputPinMode+0x112>
 800068c:	79bb      	ldrb	r3, [r7, #6]
 800068e:	2b0c      	cmp	r3, #12
 8000690:	d802      	bhi.n	8000698 <GPIO_u8SetOutputPinMode+0x40>
 8000692:	79bb      	ldrb	r3, [r7, #6]
 8000694:	2b0f      	cmp	r3, #15
 8000696:	d868      	bhi.n	800076a <GPIO_u8SetOutputPinMode+0x112>
 8000698:	797b      	ldrb	r3, [r7, #5]
 800069a:	2b00      	cmp	r3, #0
 800069c:	d130      	bne.n	8000700 <GPIO_u8SetOutputPinMode+0xa8>
 800069e:	79fb      	ldrb	r3, [r7, #7]
 80006a0:	2b03      	cmp	r3, #3
 80006a2:	d01e      	beq.n	80006e2 <GPIO_u8SetOutputPinMode+0x8a>
 80006a4:	2b03      	cmp	r3, #3
 80006a6:	dc28      	bgt.n	80006fa <GPIO_u8SetOutputPinMode+0xa2>
 80006a8:	2b01      	cmp	r3, #1
 80006aa:	d002      	beq.n	80006b2 <GPIO_u8SetOutputPinMode+0x5a>
 80006ac:	2b02      	cmp	r3, #2
 80006ae:	d00c      	beq.n	80006ca <GPIO_u8SetOutputPinMode+0x72>
 80006b0:	e023      	b.n	80006fa <GPIO_u8SetOutputPinMode+0xa2>
 80006b2:	4b32      	ldr	r3, [pc, #200]	; (800077c <GPIO_u8SetOutputPinMode+0x124>)
 80006b4:	685b      	ldr	r3, [r3, #4]
 80006b6:	79ba      	ldrb	r2, [r7, #6]
 80006b8:	2101      	movs	r1, #1
 80006ba:	fa01 f202 	lsl.w	r2, r1, r2
 80006be:	43d2      	mvns	r2, r2
 80006c0:	4611      	mov	r1, r2
 80006c2:	4a2e      	ldr	r2, [pc, #184]	; (800077c <GPIO_u8SetOutputPinMode+0x124>)
 80006c4:	400b      	ands	r3, r1
 80006c6:	6053      	str	r3, [r2, #4]
 80006c8:	e04e      	b.n	8000768 <GPIO_u8SetOutputPinMode+0x110>
 80006ca:	4b2d      	ldr	r3, [pc, #180]	; (8000780 <GPIO_u8SetOutputPinMode+0x128>)
 80006cc:	685b      	ldr	r3, [r3, #4]
 80006ce:	79ba      	ldrb	r2, [r7, #6]
 80006d0:	2101      	movs	r1, #1
 80006d2:	fa01 f202 	lsl.w	r2, r1, r2
 80006d6:	43d2      	mvns	r2, r2
 80006d8:	4611      	mov	r1, r2
 80006da:	4a29      	ldr	r2, [pc, #164]	; (8000780 <GPIO_u8SetOutputPinMode+0x128>)
 80006dc:	400b      	ands	r3, r1
 80006de:	6053      	str	r3, [r2, #4]
 80006e0:	e042      	b.n	8000768 <GPIO_u8SetOutputPinMode+0x110>
 80006e2:	4b28      	ldr	r3, [pc, #160]	; (8000784 <GPIO_u8SetOutputPinMode+0x12c>)
 80006e4:	685b      	ldr	r3, [r3, #4]
 80006e6:	79ba      	ldrb	r2, [r7, #6]
 80006e8:	2101      	movs	r1, #1
 80006ea:	fa01 f202 	lsl.w	r2, r1, r2
 80006ee:	43d2      	mvns	r2, r2
 80006f0:	4611      	mov	r1, r2
 80006f2:	4a24      	ldr	r2, [pc, #144]	; (8000784 <GPIO_u8SetOutputPinMode+0x12c>)
 80006f4:	400b      	ands	r3, r1
 80006f6:	6053      	str	r3, [r2, #4]
 80006f8:	e036      	b.n	8000768 <GPIO_u8SetOutputPinMode+0x110>
 80006fa:	2304      	movs	r3, #4
 80006fc:	73fb      	strb	r3, [r7, #15]
 80006fe:	e033      	b.n	8000768 <GPIO_u8SetOutputPinMode+0x110>
 8000700:	797b      	ldrb	r3, [r7, #5]
 8000702:	2b01      	cmp	r3, #1
 8000704:	d12d      	bne.n	8000762 <GPIO_u8SetOutputPinMode+0x10a>
 8000706:	79fb      	ldrb	r3, [r7, #7]
 8000708:	2b03      	cmp	r3, #3
 800070a:	d01c      	beq.n	8000746 <GPIO_u8SetOutputPinMode+0xee>
 800070c:	2b03      	cmp	r3, #3
 800070e:	dc25      	bgt.n	800075c <GPIO_u8SetOutputPinMode+0x104>
 8000710:	2b01      	cmp	r3, #1
 8000712:	d002      	beq.n	800071a <GPIO_u8SetOutputPinMode+0xc2>
 8000714:	2b02      	cmp	r3, #2
 8000716:	d00b      	beq.n	8000730 <GPIO_u8SetOutputPinMode+0xd8>
 8000718:	e020      	b.n	800075c <GPIO_u8SetOutputPinMode+0x104>
 800071a:	4b18      	ldr	r3, [pc, #96]	; (800077c <GPIO_u8SetOutputPinMode+0x124>)
 800071c:	685b      	ldr	r3, [r3, #4]
 800071e:	79ba      	ldrb	r2, [r7, #6]
 8000720:	2101      	movs	r1, #1
 8000722:	fa01 f202 	lsl.w	r2, r1, r2
 8000726:	4611      	mov	r1, r2
 8000728:	4a14      	ldr	r2, [pc, #80]	; (800077c <GPIO_u8SetOutputPinMode+0x124>)
 800072a:	430b      	orrs	r3, r1
 800072c:	6053      	str	r3, [r2, #4]
 800072e:	e01b      	b.n	8000768 <GPIO_u8SetOutputPinMode+0x110>
 8000730:	4b13      	ldr	r3, [pc, #76]	; (8000780 <GPIO_u8SetOutputPinMode+0x128>)
 8000732:	685b      	ldr	r3, [r3, #4]
 8000734:	79ba      	ldrb	r2, [r7, #6]
 8000736:	2101      	movs	r1, #1
 8000738:	fa01 f202 	lsl.w	r2, r1, r2
 800073c:	4611      	mov	r1, r2
 800073e:	4a10      	ldr	r2, [pc, #64]	; (8000780 <GPIO_u8SetOutputPinMode+0x128>)
 8000740:	430b      	orrs	r3, r1
 8000742:	6053      	str	r3, [r2, #4]
 8000744:	e010      	b.n	8000768 <GPIO_u8SetOutputPinMode+0x110>
 8000746:	4b0f      	ldr	r3, [pc, #60]	; (8000784 <GPIO_u8SetOutputPinMode+0x12c>)
 8000748:	685b      	ldr	r3, [r3, #4]
 800074a:	79ba      	ldrb	r2, [r7, #6]
 800074c:	2101      	movs	r1, #1
 800074e:	fa01 f202 	lsl.w	r2, r1, r2
 8000752:	4611      	mov	r1, r2
 8000754:	4a0b      	ldr	r2, [pc, #44]	; (8000784 <GPIO_u8SetOutputPinMode+0x12c>)
 8000756:	430b      	orrs	r3, r1
 8000758:	6053      	str	r3, [r2, #4]
 800075a:	e005      	b.n	8000768 <GPIO_u8SetOutputPinMode+0x110>
 800075c:	2304      	movs	r3, #4
 800075e:	73fb      	strb	r3, [r7, #15]
 8000760:	e002      	b.n	8000768 <GPIO_u8SetOutputPinMode+0x110>
 8000762:	2305      	movs	r3, #5
 8000764:	73fb      	strb	r3, [r7, #15]
 8000766:	e002      	b.n	800076e <GPIO_u8SetOutputPinMode+0x116>
 8000768:	e001      	b.n	800076e <GPIO_u8SetOutputPinMode+0x116>
 800076a:	2304      	movs	r3, #4
 800076c:	73fb      	strb	r3, [r7, #15]
 800076e:	7bfb      	ldrb	r3, [r7, #15]
 8000770:	4618      	mov	r0, r3
 8000772:	3714      	adds	r7, #20
 8000774:	46bd      	mov	sp, r7
 8000776:	f85d 7b04 	ldr.w	r7, [sp], #4
 800077a:	4770      	bx	lr
 800077c:	40020000 	.word	0x40020000
 8000780:	40020400 	.word	0x40020400
 8000784:	40020800 	.word	0x40020800

08000788 <GPIO_u8SetPinValue>:
 8000788:	b480      	push	{r7}
 800078a:	b085      	sub	sp, #20
 800078c:	af00      	add	r7, sp, #0
 800078e:	4603      	mov	r3, r0
 8000790:	71fb      	strb	r3, [r7, #7]
 8000792:	460b      	mov	r3, r1
 8000794:	71bb      	strb	r3, [r7, #6]
 8000796:	4613      	mov	r3, r2
 8000798:	717b      	strb	r3, [r7, #5]
 800079a:	2300      	movs	r3, #0
 800079c:	73fb      	strb	r3, [r7, #15]
 800079e:	79fb      	ldrb	r3, [r7, #7]
 80007a0:	2b01      	cmp	r3, #1
 80007a2:	d102      	bne.n	80007aa <GPIO_u8SetPinValue+0x22>
 80007a4:	79bb      	ldrb	r3, [r7, #6]
 80007a6:	2b0f      	cmp	r3, #15
 80007a8:	d90e      	bls.n	80007c8 <GPIO_u8SetPinValue+0x40>
 80007aa:	79fb      	ldrb	r3, [r7, #7]
 80007ac:	2b02      	cmp	r3, #2
 80007ae:	d102      	bne.n	80007b6 <GPIO_u8SetPinValue+0x2e>
 80007b0:	79bb      	ldrb	r3, [r7, #6]
 80007b2:	2b0f      	cmp	r3, #15
 80007b4:	d908      	bls.n	80007c8 <GPIO_u8SetPinValue+0x40>
 80007b6:	79fb      	ldrb	r3, [r7, #7]
 80007b8:	2b03      	cmp	r3, #3
 80007ba:	d16e      	bne.n	800089a <GPIO_u8SetPinValue+0x112>
 80007bc:	79bb      	ldrb	r3, [r7, #6]
 80007be:	2b0c      	cmp	r3, #12
 80007c0:	d802      	bhi.n	80007c8 <GPIO_u8SetPinValue+0x40>
 80007c2:	79bb      	ldrb	r3, [r7, #6]
 80007c4:	2b0f      	cmp	r3, #15
 80007c6:	d868      	bhi.n	800089a <GPIO_u8SetPinValue+0x112>
 80007c8:	797b      	ldrb	r3, [r7, #5]
 80007ca:	2b00      	cmp	r3, #0
 80007cc:	d130      	bne.n	8000830 <GPIO_u8SetPinValue+0xa8>
 80007ce:	79fb      	ldrb	r3, [r7, #7]
 80007d0:	2b03      	cmp	r3, #3
 80007d2:	d01e      	beq.n	8000812 <GPIO_u8SetPinValue+0x8a>
 80007d4:	2b03      	cmp	r3, #3
 80007d6:	dc28      	bgt.n	800082a <GPIO_u8SetPinValue+0xa2>
 80007d8:	2b01      	cmp	r3, #1
 80007da:	d002      	beq.n	80007e2 <GPIO_u8SetPinValue+0x5a>
 80007dc:	2b02      	cmp	r3, #2
 80007de:	d00c      	beq.n	80007fa <GPIO_u8SetPinValue+0x72>
 80007e0:	e023      	b.n	800082a <GPIO_u8SetPinValue+0xa2>
 80007e2:	4b32      	ldr	r3, [pc, #200]	; (80008ac <GPIO_u8SetPinValue+0x124>)
 80007e4:	695b      	ldr	r3, [r3, #20]
 80007e6:	79ba      	ldrb	r2, [r7, #6]
 80007e8:	2101      	movs	r1, #1
 80007ea:	fa01 f202 	lsl.w	r2, r1, r2
 80007ee:	43d2      	mvns	r2, r2
 80007f0:	4611      	mov	r1, r2
 80007f2:	4a2e      	ldr	r2, [pc, #184]	; (80008ac <GPIO_u8SetPinValue+0x124>)
 80007f4:	400b      	ands	r3, r1
 80007f6:	6153      	str	r3, [r2, #20]
 80007f8:	e04e      	b.n	8000898 <GPIO_u8SetPinValue+0x110>
 80007fa:	4b2d      	ldr	r3, [pc, #180]	; (80008b0 <GPIO_u8SetPinValue+0x128>)
 80007fc:	695b      	ldr	r3, [r3, #20]
 80007fe:	79ba      	ldrb	r2, [r7, #6]
 8000800:	2101      	movs	r1, #1
 8000802:	fa01 f202 	lsl.w	r2, r1, r2
 8000806:	43d2      	mvns	r2, r2
 8000808:	4611      	mov	r1, r2
 800080a:	4a29      	ldr	r2, [pc, #164]	; (80008b0 <GPIO_u8SetPinValue+0x128>)
 800080c:	400b      	ands	r3, r1
 800080e:	6153      	str	r3, [r2, #20]
 8000810:	e042      	b.n	8000898 <GPIO_u8SetPinValue+0x110>
 8000812:	4b28      	ldr	r3, [pc, #160]	; (80008b4 <GPIO_u8SetPinValue+0x12c>)
 8000814:	695b      	ldr	r3, [r3, #20]
 8000816:	79ba      	ldrb	r2, [r7, #6]
 8000818:	2101      	movs	r1, #1
 800081a:	fa01 f202 	lsl.w	r2, r1, r2
 800081e:	43d2      	mvns	r2, r2
 8000820:	4611      	mov	r1, r2
 8000822:	4a24      	ldr	r2, [pc, #144]	; (80008b4 <GPIO_u8SetPinValue+0x12c>)
 8000824:	400b      	ands	r3, r1
 8000826:	6153      	str	r3, [r2, #20]
 8000828:	e036      	b.n	8000898 <GPIO_u8SetPinValue+0x110>
 800082a:	2304      	movs	r3, #4
 800082c:	73fb      	strb	r3, [r7, #15]
 800082e:	e033      	b.n	8000898 <GPIO_u8SetPinValue+0x110>
 8000830:	797b      	ldrb	r3, [r7, #5]
 8000832:	2b01      	cmp	r3, #1
 8000834:	d12d      	bne.n	8000892 <GPIO_u8SetPinValue+0x10a>
 8000836:	79fb      	ldrb	r3, [r7, #7]
 8000838:	2b03      	cmp	r3, #3
 800083a:	d01c      	beq.n	8000876 <GPIO_u8SetPinValue+0xee>
 800083c:	2b03      	cmp	r3, #3
 800083e:	dc25      	bgt.n	800088c <GPIO_u8SetPinValue+0x104>
 8000840:	2b01      	cmp	r3, #1
 8000842:	d002      	beq.n	800084a <GPIO_u8SetPinValue+0xc2>
 8000844:	2b02      	cmp	r3, #2
 8000846:	d00b      	beq.n	8000860 <GPIO_u8SetPinValue+0xd8>
 8000848:	e020      	b.n	800088c <GPIO_u8SetPinValue+0x104>
 800084a:	4b18      	ldr	r3, [pc, #96]	; (80008ac <GPIO_u8SetPinValue+0x124>)
 800084c:	695b      	ldr	r3, [r3, #20]
 800084e:	79ba      	ldrb	r2, [r7, #6]
 8000850:	2101      	movs	r1, #1
 8000852:	fa01 f202 	lsl.w	r2, r1, r2
 8000856:	4611      	mov	r1, r2
 8000858:	4a14      	ldr	r2, [pc, #80]	; (80008ac <GPIO_u8SetPinValue+0x124>)
 800085a:	430b      	orrs	r3, r1
 800085c:	6153      	str	r3, [r2, #20]
 800085e:	e01b      	b.n	8000898 <GPIO_u8SetPinValue+0x110>
 8000860:	4b13      	ldr	r3, [pc, #76]	; (80008b0 <GPIO_u8SetPinValue+0x128>)
 8000862:	695b      	ldr	r3, [r3, #20]
 8000864:	79ba      	ldrb	r2, [r7, #6]
 8000866:	2101      	movs	r1, #1
 8000868:	fa01 f202 	lsl.w	r2, r1, r2
 800086c:	4611      	mov	r1, r2
 800086e:	4a10      	ldr	r2, [pc, #64]	; (80008b0 <GPIO_u8SetPinValue+0x128>)
 8000870:	430b      	orrs	r3, r1
 8000872:	6153      	str	r3, [r2, #20]
 8000874:	e010      	b.n	8000898 <GPIO_u8SetPinValue+0x110>
 8000876:	4b0f      	ldr	r3, [pc, #60]	; (80008b4 <GPIO_u8SetPinValue+0x12c>)
 8000878:	695b      	ldr	r3, [r3, #20]
 800087a:	79ba      	ldrb	r2, [r7, #6]
 800087c:	2101      	movs	r1, #1
 800087e:	fa01 f202 	lsl.w	r2, r1, r2
 8000882:	4611      	mov	r1, r2
 8000884:	4a0b      	ldr	r2, [pc, #44]	; (80008b4 <GPIO_u8SetPinValue+0x12c>)
 8000886:	430b      	orrs	r3, r1
 8000888:	6153      	str	r3, [r2, #20]
 800088a:	e005      	b.n	8000898 <GPIO_u8SetPinValue+0x110>
 800088c:	2304      	movs	r3, #4
 800088e:	73fb      	strb	r3, [r7, #15]
 8000890:	e002      	b.n	8000898 <GPIO_u8SetPinValue+0x110>
 8000892:	2305      	movs	r3, #5
 8000894:	73fb      	strb	r3, [r7, #15]
 8000896:	e002      	b.n	800089e <GPIO_u8SetPinValue+0x116>
 8000898:	e001      	b.n	800089e <GPIO_u8SetPinValue+0x116>
 800089a:	2304      	movs	r3, #4
 800089c:	73fb      	strb	r3, [r7, #15]
 800089e:	7bfb      	ldrb	r3, [r7, #15]
 80008a0:	4618      	mov	r0, r3
 80008a2:	3714      	adds	r7, #20
 80008a4:	46bd      	mov	sp, r7
 80008a6:	f85d 7b04 	ldr.w	r7, [sp], #4
 80008aa:	4770      	bx	lr
 80008ac:	40020000 	.word	0x40020000
 80008b0:	40020400 	.word	0x40020400
 80008b4:	40020800 	.word	0x40020800

080008b8 <GPIO_u8FastControlPinValue>:
 80008b8:	b480      	push	{r7}
 80008ba:	b085      	sub	sp, #20
 80008bc:	af00      	add	r7, sp, #0
 80008be:	4603      	mov	r3, r0
 80008c0:	71fb      	strb	r3, [r7, #7]
 80008c2:	460b      	mov	r3, r1
 80008c4:	71bb      	strb	r3, [r7, #6]
 80008c6:	4613      	mov	r3, r2
 80008c8:	717b      	strb	r3, [r7, #5]
 80008ca:	2300      	movs	r3, #0
 80008cc:	73fb      	strb	r3, [r7, #15]
 80008ce:	79fb      	ldrb	r3, [r7, #7]
 80008d0:	2b01      	cmp	r3, #1
 80008d2:	d102      	bne.n	80008da <GPIO_u8FastControlPinValue+0x22>
 80008d4:	79bb      	ldrb	r3, [r7, #6]
 80008d6:	2b0f      	cmp	r3, #15
 80008d8:	d90e      	bls.n	80008f8 <GPIO_u8FastControlPinValue+0x40>
 80008da:	79fb      	ldrb	r3, [r7, #7]
 80008dc:	2b02      	cmp	r3, #2
 80008de:	d102      	bne.n	80008e6 <GPIO_u8FastControlPinValue+0x2e>
 80008e0:	79bb      	ldrb	r3, [r7, #6]
 80008e2:	2b0f      	cmp	r3, #15
 80008e4:	d908      	bls.n	80008f8 <GPIO_u8FastControlPinValue+0x40>
 80008e6:	79fb      	ldrb	r3, [r7, #7]
 80008e8:	2b03      	cmp	r3, #3
 80008ea:	d153      	bne.n	8000994 <GPIO_u8FastControlPinValue+0xdc>
 80008ec:	79bb      	ldrb	r3, [r7, #6]
 80008ee:	2b0c      	cmp	r3, #12
 80008f0:	d802      	bhi.n	80008f8 <GPIO_u8FastControlPinValue+0x40>
 80008f2:	79bb      	ldrb	r3, [r7, #6]
 80008f4:	2b0f      	cmp	r3, #15
 80008f6:	d84d      	bhi.n	8000994 <GPIO_u8FastControlPinValue+0xdc>
 80008f8:	797b      	ldrb	r3, [r7, #5]
 80008fa:	2b00      	cmp	r3, #0
 80008fc:	d121      	bne.n	8000942 <GPIO_u8FastControlPinValue+0x8a>
 80008fe:	79fb      	ldrb	r3, [r7, #7]
 8000900:	2b03      	cmp	r3, #3
 8000902:	d014      	beq.n	800092e <GPIO_u8FastControlPinValue+0x76>
 8000904:	2b03      	cmp	r3, #3
 8000906:	dc19      	bgt.n	800093c <GPIO_u8FastControlPinValue+0x84>
 8000908:	2b01      	cmp	r3, #1
 800090a:	d002      	beq.n	8000912 <GPIO_u8FastControlPinValue+0x5a>
 800090c:	2b02      	cmp	r3, #2
 800090e:	d007      	beq.n	8000920 <GPIO_u8FastControlPinValue+0x68>
 8000910:	e014      	b.n	800093c <GPIO_u8FastControlPinValue+0x84>
 8000912:	79bb      	ldrb	r3, [r7, #6]
 8000914:	2201      	movs	r2, #1
 8000916:	409a      	lsls	r2, r3
 8000918:	4b23      	ldr	r3, [pc, #140]	; (80009a8 <GPIO_u8FastControlPinValue+0xf0>)
 800091a:	b292      	uxth	r2, r2
 800091c:	835a      	strh	r2, [r3, #26]
 800091e:	e038      	b.n	8000992 <GPIO_u8FastControlPinValue+0xda>
 8000920:	79bb      	ldrb	r3, [r7, #6]
 8000922:	2201      	movs	r2, #1
 8000924:	409a      	lsls	r2, r3
 8000926:	4b21      	ldr	r3, [pc, #132]	; (80009ac <GPIO_u8FastControlPinValue+0xf4>)
 8000928:	b292      	uxth	r2, r2
 800092a:	835a      	strh	r2, [r3, #26]
 800092c:	e031      	b.n	8000992 <GPIO_u8FastControlPinValue+0xda>
 800092e:	79bb      	ldrb	r3, [r7, #6]
 8000930:	2201      	movs	r2, #1
 8000932:	409a      	lsls	r2, r3
 8000934:	4b1e      	ldr	r3, [pc, #120]	; (80009b0 <GPIO_u8FastControlPinValue+0xf8>)
 8000936:	b292      	uxth	r2, r2
 8000938:	835a      	strh	r2, [r3, #26]
 800093a:	e02a      	b.n	8000992 <GPIO_u8FastControlPinValue+0xda>
 800093c:	2304      	movs	r3, #4
 800093e:	73fb      	strb	r3, [r7, #15]
 8000940:	e027      	b.n	8000992 <GPIO_u8FastControlPinValue+0xda>
 8000942:	797b      	ldrb	r3, [r7, #5]
 8000944:	2b01      	cmp	r3, #1
 8000946:	d121      	bne.n	800098c <GPIO_u8FastControlPinValue+0xd4>
 8000948:	79fb      	ldrb	r3, [r7, #7]
 800094a:	2b03      	cmp	r3, #3
 800094c:	d014      	beq.n	8000978 <GPIO_u8FastControlPinValue+0xc0>
 800094e:	2b03      	cmp	r3, #3
 8000950:	dc19      	bgt.n	8000986 <GPIO_u8FastControlPinValue+0xce>
 8000952:	2b01      	cmp	r3, #1
 8000954:	d002      	beq.n	800095c <GPIO_u8FastControlPinValue+0xa4>
 8000956:	2b02      	cmp	r3, #2
 8000958:	d007      	beq.n	800096a <GPIO_u8FastControlPinValue+0xb2>
 800095a:	e014      	b.n	8000986 <GPIO_u8FastControlPinValue+0xce>
 800095c:	79bb      	ldrb	r3, [r7, #6]
 800095e:	2201      	movs	r2, #1
 8000960:	409a      	lsls	r2, r3
 8000962:	4b11      	ldr	r3, [pc, #68]	; (80009a8 <GPIO_u8FastControlPinValue+0xf0>)
 8000964:	b292      	uxth	r2, r2
 8000966:	831a      	strh	r2, [r3, #24]
 8000968:	e013      	b.n	8000992 <GPIO_u8FastControlPinValue+0xda>
 800096a:	79bb      	ldrb	r3, [r7, #6]
 800096c:	2201      	movs	r2, #1
 800096e:	409a      	lsls	r2, r3
 8000970:	4b0e      	ldr	r3, [pc, #56]	; (80009ac <GPIO_u8FastControlPinValue+0xf4>)
 8000972:	b292      	uxth	r2, r2
 8000974:	831a      	strh	r2, [r3, #24]
 8000976:	e00c      	b.n	8000992 <GPIO_u8FastControlPinValue+0xda>
 8000978:	79bb      	ldrb	r3, [r7, #6]
 800097a:	2201      	movs	r2, #1
 800097c:	409a      	lsls	r2, r3
 800097e:	4b0c      	ldr	r3, [pc, #48]	; (80009b0 <GPIO_u8FastControlPinValue+0xf8>)
 8000980:	b292      	uxth	r2, r2
 8000982:	831a      	strh	r2, [r3, #24]
 8000984:	e005      	b.n	8000992 <GPIO_u8FastControlPinValue+0xda>
 8000986:	2304      	movs	r3, #4
 8000988:	73fb      	strb	r3, [r7, #15]
 800098a:	e002      	b.n	8000992 <GPIO_u8FastControlPinValue+0xda>
 800098c:	2305      	movs	r3, #5
 800098e:	73fb      	strb	r3, [r7, #15]
 8000990:	e002      	b.n	8000998 <GPIO_u8FastControlPinValue+0xe0>
 8000992:	e001      	b.n	8000998 <GPIO_u8FastControlPinValue+0xe0>
 8000994:	2304      	movs	r3, #4
 8000996:	73fb      	strb	r3, [r7, #15]
 8000998:	7bfb      	ldrb	r3, [r7, #15]
 800099a:	4618      	mov	r0, r3
 800099c:	3714      	adds	r7, #20
 800099e:	46bd      	mov	sp, r7
 80009a0:	f85d 7b04 	ldr.w	r7, [sp], #4
 80009a4:	4770      	bx	lr
 80009a6:	bf00      	nop
 80009a8:	40020000 	.word	0x40020000
 80009ac:	40020400 	.word	0x40020400
 80009b0:	40020800 	.word	0x40020800

080009b4 <GPIO_u8GetPinValue>:
 80009b4:	b480      	push	{r7}
 80009b6:	b085      	sub	sp, #20
 80009b8:	af00      	add	r7, sp, #0
 80009ba:	4603      	mov	r3, r0
 80009bc:	603a      	str	r2, [r7, #0]
 80009be:	71fb      	strb	r3, [r7, #7]
 80009c0:	460b      	mov	r3, r1
 80009c2:	71bb      	strb	r3, [r7, #6]
 80009c4:	2300      	movs	r3, #0
 80009c6:	73fb      	strb	r3, [r7, #15]
 80009c8:	79fb      	ldrb	r3, [r7, #7]
 80009ca:	2b01      	cmp	r3, #1
 80009cc:	d102      	bne.n	80009d4 <GPIO_u8GetPinValue+0x20>
 80009ce:	79bb      	ldrb	r3, [r7, #6]
 80009d0:	2b0f      	cmp	r3, #15
 80009d2:	d90e      	bls.n	80009f2 <GPIO_u8GetPinValue+0x3e>
 80009d4:	79fb      	ldrb	r3, [r7, #7]
 80009d6:	2b02      	cmp	r3, #2
 80009d8:	d102      	bne.n	80009e0 <GPIO_u8GetPinValue+0x2c>
 80009da:	79bb      	ldrb	r3, [r7, #6]
 80009dc:	2b0f      	cmp	r3, #15
 80009de:	d908      	bls.n	80009f2 <GPIO_u8GetPinValue+0x3e>
 80009e0:	79fb      	ldrb	r3, [r7, #7]
 80009e2:	2b03      	cmp	r3, #3
 80009e4:	d13a      	bne.n	8000a5c <GPIO_u8GetPinValue+0xa8>
 80009e6:	79bb      	ldrb	r3, [r7, #6]
 80009e8:	2b0c      	cmp	r3, #12
 80009ea:	d802      	bhi.n	80009f2 <GPIO_u8GetPinValue+0x3e>
 80009ec:	79bb      	ldrb	r3, [r7, #6]
 80009ee:	2b0f      	cmp	r3, #15
 80009f0:	d834      	bhi.n	8000a5c <GPIO_u8GetPinValue+0xa8>
 80009f2:	683b      	ldr	r3, [r7, #0]
 80009f4:	2b00      	cmp	r3, #0
 80009f6:	d031      	beq.n	8000a5c <GPIO_u8GetPinValue+0xa8>
 80009f8:	79fb      	ldrb	r3, [r7, #7]
 80009fa:	2b03      	cmp	r3, #3
 80009fc:	d01e      	beq.n	8000a3c <GPIO_u8GetPinValue+0x88>
 80009fe:	2b03      	cmp	r3, #3
 8000a00:	dc28      	bgt.n	8000a54 <GPIO_u8GetPinValue+0xa0>
 8000a02:	2b01      	cmp	r3, #1
 8000a04:	d002      	beq.n	8000a0c <GPIO_u8GetPinValue+0x58>
 8000a06:	2b02      	cmp	r3, #2
 8000a08:	d00c      	beq.n	8000a24 <GPIO_u8GetPinValue+0x70>
 8000a0a:	e023      	b.n	8000a54 <GPIO_u8GetPinValue+0xa0>
 8000a0c:	4b18      	ldr	r3, [pc, #96]	; (8000a70 <GPIO_u8GetPinValue+0xbc>)
 8000a0e:	691a      	ldr	r2, [r3, #16]
 8000a10:	79bb      	ldrb	r3, [r7, #6]
 8000a12:	fa22 f303 	lsr.w	r3, r2, r3
 8000a16:	b2db      	uxtb	r3, r3
 8000a18:	f003 0301 	and.w	r3, r3, #1
 8000a1c:	b2da      	uxtb	r2, r3
 8000a1e:	683b      	ldr	r3, [r7, #0]
 8000a20:	701a      	strb	r2, [r3, #0]
 8000a22:	e01a      	b.n	8000a5a <GPIO_u8GetPinValue+0xa6>
 8000a24:	4b13      	ldr	r3, [pc, #76]	; (8000a74 <GPIO_u8GetPinValue+0xc0>)
 8000a26:	691a      	ldr	r2, [r3, #16]
 8000a28:	79bb      	ldrb	r3, [r7, #6]
 8000a2a:	fa22 f303 	lsr.w	r3, r2, r3
 8000a2e:	b2db      	uxtb	r3, r3
 8000a30:	f003 0301 	and.w	r3, r3, #1
 8000a34:	b2da      	uxtb	r2, r3
 8000a36:	683b      	ldr	r3, [r7, #0]
 8000a38:	701a      	strb	r2, [r3, #0]
 8000a3a:	e00e      	b.n	8000a5a <GPIO_u8GetPinValue+0xa6>
 8000a3c:	4b0e      	ldr	r3, [pc, #56]	; (8000a78 <GPIO_u8GetPinValue+0xc4>)
 8000a3e:	691a      	ldr	r2, [r3, #16]
 8000a40:	79bb      	ldrb	r3, [r7, #6]
 8000a42:	fa22 f303 	lsr.w	r3, r2, r3
 8000a46:	b2db      	uxtb	r3, r3
 8000a48:	f003 0301 	and.w	r3, r3, #1
 8000a4c:	b2da      	uxtb	r2, r3
 8000a4e:	683b      	ldr	r3, [r7, #0]
 8000a50:	701a      	strb	r2, [r3, #0]
 8000a52:	e002      	b.n	8000a5a <GPIO_u8GetPinValue+0xa6>
 8000a54:	2304      	movs	r3, #4
 8000a56:	73fb      	strb	r3, [r7, #15]
 8000a58:	bf00      	nop
 8000a5a:	e001      	b.n	8000a60 <GPIO_u8GetPinValue+0xac>
 8000a5c:	2304      	movs	r3, #4
 8000a5e:	73fb      	strb	r3, [r7, #15]
 8000a60:	7bfb      	ldrb	r3, [r7, #15]
 8000a62:	4618      	mov	r0, r3
 8000a64:	3714      	adds	r7, #20
 8000a66:	46bd      	mov	sp, r7
 8000a68:	f85d 7b04 	ldr.w	r7, [sp], #4
 8000a6c:	4770      	bx	lr
 8000a6e:	bf00      	nop
 8000a70:	40020000 	.word	0x40020000
 8000a74:	40020400 	.word	0x40020400
 8000a78:	40020800 	.word	0x40020800

08000a7c <GPIO_u8SetPullResMode>:
 8000a7c:	b480      	push	{r7}
 8000a7e:	b085      	sub	sp, #20
 8000a80:	af00      	add	r7, sp, #0
 8000a82:	4603      	mov	r3, r0
 8000a84:	71fb      	strb	r3, [r7, #7]
 8000a86:	460b      	mov	r3, r1
 8000a88:	71bb      	strb	r3, [r7, #6]
 8000a8a:	4613      	mov	r3, r2
 8000a8c:	717b      	strb	r3, [r7, #5]
 8000a8e:	2300      	movs	r3, #0
 8000a90:	73fb      	strb	r3, [r7, #15]
 8000a92:	79fb      	ldrb	r3, [r7, #7]
 8000a94:	2b01      	cmp	r3, #1
 8000a96:	d102      	bne.n	8000a9e <GPIO_u8SetPullResMode+0x22>
 8000a98:	79bb      	ldrb	r3, [r7, #6]
 8000a9a:	2b0f      	cmp	r3, #15
 8000a9c:	d90e      	bls.n	8000abc <GPIO_u8SetPullResMode+0x40>
 8000a9e:	79fb      	ldrb	r3, [r7, #7]
 8000aa0:	2b02      	cmp	r3, #2
 8000aa2:	d102      	bne.n	8000aaa <GPIO_u8SetPullResMode+0x2e>
 8000aa4:	79bb      	ldrb	r3, [r7, #6]
 8000aa6:	2b0f      	cmp	r3, #15
 8000aa8:	d908      	bls.n	8000abc <GPIO_u8SetPullResMode+0x40>
 8000aaa:	79fb      	ldrb	r3, [r7, #7]
 8000aac:	2b03      	cmp	r3, #3
 8000aae:	d157      	bne.n	8000b60 <GPIO_u8SetPullResMode+0xe4>
 8000ab0:	79bb      	ldrb	r3, [r7, #6]
 8000ab2:	2b0c      	cmp	r3, #12
 8000ab4:	d802      	bhi.n	8000abc <GPIO_u8SetPullResMode+0x40>
 8000ab6:	79bb      	ldrb	r3, [r7, #6]
 8000ab8:	2b0f      	cmp	r3, #15
 8000aba:	d851      	bhi.n	8000b60 <GPIO_u8SetPullResMode+0xe4>
 8000abc:	79bb      	ldrb	r3, [r7, #6]
 8000abe:	005b      	lsls	r3, r3, #1
 8000ac0:	71bb      	strb	r3, [r7, #6]
 8000ac2:	79fb      	ldrb	r3, [r7, #7]
 8000ac4:	2b03      	cmp	r3, #3
 8000ac6:	d032      	beq.n	8000b2e <GPIO_u8SetPullResMode+0xb2>
 8000ac8:	2b03      	cmp	r3, #3
 8000aca:	dc45      	bgt.n	8000b58 <GPIO_u8SetPullResMode+0xdc>
 8000acc:	2b01      	cmp	r3, #1
 8000ace:	d002      	beq.n	8000ad6 <GPIO_u8SetPullResMode+0x5a>
 8000ad0:	2b02      	cmp	r3, #2
 8000ad2:	d016      	beq.n	8000b02 <GPIO_u8SetPullResMode+0x86>
 8000ad4:	e040      	b.n	8000b58 <GPIO_u8SetPullResMode+0xdc>
 8000ad6:	4b27      	ldr	r3, [pc, #156]	; (8000b74 <GPIO_u8SetPullResMode+0xf8>)
 8000ad8:	68db      	ldr	r3, [r3, #12]
 8000ada:	79ba      	ldrb	r2, [r7, #6]
 8000adc:	2103      	movs	r1, #3
 8000ade:	fa01 f202 	lsl.w	r2, r1, r2
 8000ae2:	43d2      	mvns	r2, r2
 8000ae4:	4611      	mov	r1, r2
 8000ae6:	4a23      	ldr	r2, [pc, #140]	; (8000b74 <GPIO_u8SetPullResMode+0xf8>)
 8000ae8:	400b      	ands	r3, r1
 8000aea:	60d3      	str	r3, [r2, #12]
 8000aec:	4b21      	ldr	r3, [pc, #132]	; (8000b74 <GPIO_u8SetPullResMode+0xf8>)
 8000aee:	68db      	ldr	r3, [r3, #12]
 8000af0:	7979      	ldrb	r1, [r7, #5]
 8000af2:	79ba      	ldrb	r2, [r7, #6]
 8000af4:	fa01 f202 	lsl.w	r2, r1, r2
 8000af8:	4611      	mov	r1, r2
 8000afa:	4a1e      	ldr	r2, [pc, #120]	; (8000b74 <GPIO_u8SetPullResMode+0xf8>)
 8000afc:	430b      	orrs	r3, r1
 8000afe:	60d3      	str	r3, [r2, #12]
 8000b00:	e02d      	b.n	8000b5e <GPIO_u8SetPullResMode+0xe2>
 8000b02:	4b1d      	ldr	r3, [pc, #116]	; (8000b78 <GPIO_u8SetPullResMode+0xfc>)
 8000b04:	68db      	ldr	r3, [r3, #12]
 8000b06:	79ba      	ldrb	r2, [r7, #6]
 8000b08:	2103      	movs	r1, #3
 8000b0a:	fa01 f202 	lsl.w	r2, r1, r2
 8000b0e:	43d2      	mvns	r2, r2
 8000b10:	4611      	mov	r1, r2
 8000b12:	4a19      	ldr	r2, [pc, #100]	; (8000b78 <GPIO_u8SetPullResMode+0xfc>)
 8000b14:	400b      	ands	r3, r1
 8000b16:	60d3      	str	r3, [r2, #12]
 8000b18:	4b17      	ldr	r3, [pc, #92]	; (8000b78 <GPIO_u8SetPullResMode+0xfc>)
 8000b1a:	68db      	ldr	r3, [r3, #12]
 8000b1c:	7979      	ldrb	r1, [r7, #5]
 8000b1e:	79ba      	ldrb	r2, [r7, #6]
 8000b20:	fa01 f202 	lsl.w	r2, r1, r2
 8000b24:	4611      	mov	r1, r2
 8000b26:	4a14      	ldr	r2, [pc, #80]	; (8000b78 <GPIO_u8SetPullResMode+0xfc>)
 8000b28:	430b      	orrs	r3, r1
 8000b2a:	60d3      	str	r3, [r2, #12]
 8000b2c:	e017      	b.n	8000b5e <GPIO_u8SetPullResMode+0xe2>
 8000b2e:	4b13      	ldr	r3, [pc, #76]	; (8000b7c <GPIO_u8SetPullResMode+0x100>)
 8000b30:	68db      	ldr	r3, [r3, #12]
 8000b32:	79ba      	ldrb	r2, [r7, #6]
 8000b34:	2103      	movs	r1, #3
 8000b36:	fa01 f202 	lsl.w	r2, r1, r2
 8000b3a:	43d2      	mvns	r2, r2
 8000b3c:	4611      	mov	r1, r2
 8000b3e:	4a0f      	ldr	r2, [pc, #60]	; (8000b7c <GPIO_u8SetPullResMode+0x100>)
 8000b40:	400b      	ands	r3, r1
 8000b42:	60d3      	str	r3, [r2, #12]
 8000b44:	4b0d      	ldr	r3, [pc, #52]	; (8000b7c <GPIO_u8SetPullResMode+0x100>)
 8000b46:	68db      	ldr	r3, [r3, #12]
 8000b48:	7979      	ldrb	r1, [r7, #5]
 8000b4a:	79ba      	ldrb	r2, [r7, #6]
 8000b4c:	fa01 f202 	lsl.w	r2, r1, r2
 8000b50:	4611      	mov	r1, r2
 8000b52:	4a0a      	ldr	r2, [pc, #40]	; (8000b7c <GPIO_u8SetPullResMode+0x100>)
 8000b54:	430b      	orrs	r3, r1
 8000b56:	60d3      	str	r3, [r2, #12]
 8000b58:	2304      	movs	r3, #4
 8000b5a:	73fb      	strb	r3, [r7, #15]
 8000b5c:	bf00      	nop
 8000b5e:	e001      	b.n	8000b64 <GPIO_u8SetPullResMode+0xe8>
 8000b60:	2304      	movs	r3, #4
 8000b62:	73fb      	strb	r3, [r7, #15]
 8000b64:	7bfb      	ldrb	r3, [r7, #15]
 8000b66:	4618      	mov	r0, r3
 8000b68:	3714      	adds	r7, #20
 8000b6a:	46bd      	mov	sp, r7
 8000b6c:	f85d 7b04 	ldr.w	r7, [sp], #4
 8000b70:	4770      	bx	lr
 8000b72:	bf00      	nop
 8000b74:	40020000 	.word	0x40020000
 8000b78:	40020400 	.word	0x40020400
 8000b7c:	40020800 	.word	0x40020800

08000b80 <GPIO_voidSetAlternativeFunction>:
 8000b80:	b480      	push	{r7}
 8000b82:	b085      	sub	sp, #20
 8000b84:	af00      	add	r7, sp, #0
 8000b86:	4603      	mov	r3, r0
 8000b88:	71fb      	strb	r3, [r7, #7]
 8000b8a:	460b      	mov	r3, r1
 8000b8c:	71bb      	strb	r3, [r7, #6]
 8000b8e:	4613      	mov	r3, r2
 8000b90:	717b      	strb	r3, [r7, #5]
 8000b92:	2300      	movs	r3, #0
 8000b94:	73fb      	strb	r3, [r7, #15]
 8000b96:	79fb      	ldrb	r3, [r7, #7]
 8000b98:	2b01      	cmp	r3, #1
 8000b9a:	d102      	bne.n	8000ba2 <GPIO_voidSetAlternativeFunction+0x22>
 8000b9c:	79bb      	ldrb	r3, [r7, #6]
 8000b9e:	2b0f      	cmp	r3, #15
 8000ba0:	d910      	bls.n	8000bc4 <GPIO_voidSetAlternativeFunction+0x44>
 8000ba2:	79fb      	ldrb	r3, [r7, #7]
 8000ba4:	2b02      	cmp	r3, #2
 8000ba6:	d102      	bne.n	8000bae <GPIO_voidSetAlternativeFunction+0x2e>
 8000ba8:	79bb      	ldrb	r3, [r7, #6]
 8000baa:	2b0f      	cmp	r3, #15
 8000bac:	d90a      	bls.n	8000bc4 <GPIO_voidSetAlternativeFunction+0x44>
 8000bae:	79fb      	ldrb	r3, [r7, #7]
 8000bb0:	2b03      	cmp	r3, #3
 8000bb2:	f040 80bf 	bne.w	8000d34 <GPIO_voidSetAlternativeFunction+0x1b4>
 8000bb6:	79bb      	ldrb	r3, [r7, #6]
 8000bb8:	2b0c      	cmp	r3, #12
 8000bba:	d803      	bhi.n	8000bc4 <GPIO_voidSetAlternativeFunction+0x44>
 8000bbc:	79bb      	ldrb	r3, [r7, #6]
 8000bbe:	2b0f      	cmp	r3, #15
 8000bc0:	f200 80b8 	bhi.w	8000d34 <GPIO_voidSetAlternativeFunction+0x1b4>
 8000bc4:	79bb      	ldrb	r3, [r7, #6]
 8000bc6:	2b07      	cmp	r3, #7
 8000bc8:	d854      	bhi.n	8000c74 <GPIO_voidSetAlternativeFunction+0xf4>
 8000bca:	79fb      	ldrb	r3, [r7, #7]
 8000bcc:	2b03      	cmp	r3, #3
 8000bce:	d036      	beq.n	8000c3e <GPIO_voidSetAlternativeFunction+0xbe>
 8000bd0:	2b03      	cmp	r3, #3
 8000bd2:	dc4c      	bgt.n	8000c6e <GPIO_voidSetAlternativeFunction+0xee>
 8000bd4:	2b01      	cmp	r3, #1
 8000bd6:	d002      	beq.n	8000bde <GPIO_voidSetAlternativeFunction+0x5e>
 8000bd8:	2b02      	cmp	r3, #2
 8000bda:	d018      	beq.n	8000c0e <GPIO_voidSetAlternativeFunction+0x8e>
 8000bdc:	e047      	b.n	8000c6e <GPIO_voidSetAlternativeFunction+0xee>
 8000bde:	4b5a      	ldr	r3, [pc, #360]	; (8000d48 <GPIO_voidSetAlternativeFunction+0x1c8>)
 8000be0:	6a1b      	ldr	r3, [r3, #32]
 8000be2:	79ba      	ldrb	r2, [r7, #6]
 8000be4:	0092      	lsls	r2, r2, #2
 8000be6:	210f      	movs	r1, #15
 8000be8:	fa01 f202 	lsl.w	r2, r1, r2
 8000bec:	43d2      	mvns	r2, r2
 8000bee:	4611      	mov	r1, r2
 8000bf0:	4a55      	ldr	r2, [pc, #340]	; (8000d48 <GPIO_voidSetAlternativeFunction+0x1c8>)
 8000bf2:	400b      	ands	r3, r1
 8000bf4:	6213      	str	r3, [r2, #32]
 8000bf6:	4b54      	ldr	r3, [pc, #336]	; (8000d48 <GPIO_voidSetAlternativeFunction+0x1c8>)
 8000bf8:	6a1b      	ldr	r3, [r3, #32]
 8000bfa:	7979      	ldrb	r1, [r7, #5]
 8000bfc:	79ba      	ldrb	r2, [r7, #6]
 8000bfe:	0092      	lsls	r2, r2, #2
 8000c00:	fa01 f202 	lsl.w	r2, r1, r2
 8000c04:	4611      	mov	r1, r2
 8000c06:	4a50      	ldr	r2, [pc, #320]	; (8000d48 <GPIO_voidSetAlternativeFunction+0x1c8>)
 8000c08:	430b      	orrs	r3, r1
 8000c0a:	6213      	str	r3, [r2, #32]
 8000c0c:	e091      	b.n	8000d32 <GPIO_voidSetAlternativeFunction+0x1b2>
 8000c0e:	4b4f      	ldr	r3, [pc, #316]	; (8000d4c <GPIO_voidSetAlternativeFunction+0x1cc>)
 8000c10:	6a1b      	ldr	r3, [r3, #32]
 8000c12:	79ba      	ldrb	r2, [r7, #6]
 8000c14:	0092      	lsls	r2, r2, #2
 8000c16:	210f      	movs	r1, #15
 8000c18:	fa01 f202 	lsl.w	r2, r1, r2
 8000c1c:	43d2      	mvns	r2, r2
 8000c1e:	4611      	mov	r1, r2
 8000c20:	4a4a      	ldr	r2, [pc, #296]	; (8000d4c <GPIO_voidSetAlternativeFunction+0x1cc>)
 8000c22:	400b      	ands	r3, r1
 8000c24:	6213      	str	r3, [r2, #32]
 8000c26:	4b49      	ldr	r3, [pc, #292]	; (8000d4c <GPIO_voidSetAlternativeFunction+0x1cc>)
 8000c28:	6a1b      	ldr	r3, [r3, #32]
 8000c2a:	7979      	ldrb	r1, [r7, #5]
 8000c2c:	79ba      	ldrb	r2, [r7, #6]
 8000c2e:	0092      	lsls	r2, r2, #2
 8000c30:	fa01 f202 	lsl.w	r2, r1, r2
 8000c34:	4611      	mov	r1, r2
 8000c36:	4a45      	ldr	r2, [pc, #276]	; (8000d4c <GPIO_voidSetAlternativeFunction+0x1cc>)
 8000c38:	430b      	orrs	r3, r1
 8000c3a:	6213      	str	r3, [r2, #32]
 8000c3c:	e079      	b.n	8000d32 <GPIO_voidSetAlternativeFunction+0x1b2>
 8000c3e:	4b44      	ldr	r3, [pc, #272]	; (8000d50 <GPIO_voidSetAlternativeFunction+0x1d0>)
 8000c40:	6a1b      	ldr	r3, [r3, #32]
 8000c42:	79ba      	ldrb	r2, [r7, #6]
 8000c44:	0092      	lsls	r2, r2, #2
 8000c46:	210f      	movs	r1, #15
 8000c48:	fa01 f202 	lsl.w	r2, r1, r2
 8000c4c:	43d2      	mvns	r2, r2
 8000c4e:	4611      	mov	r1, r2
 8000c50:	4a3f      	ldr	r2, [pc, #252]	; (8000d50 <GPIO_voidSetAlternativeFunction+0x1d0>)
 8000c52:	400b      	ands	r3, r1
 8000c54:	6213      	str	r3, [r2, #32]
 8000c56:	4b3e      	ldr	r3, [pc, #248]	; (8000d50 <GPIO_voidSetAlternativeFunction+0x1d0>)
 8000c58:	6a1b      	ldr	r3, [r3, #32]
 8000c5a:	7979      	ldrb	r1, [r7, #5]
 8000c5c:	79ba      	ldrb	r2, [r7, #6]
 8000c5e:	0092      	lsls	r2, r2, #2
 8000c60:	fa01 f202 	lsl.w	r2, r1, r2
 8000c64:	4611      	mov	r1, r2
 8000c66:	4a3a      	ldr	r2, [pc, #232]	; (8000d50 <GPIO_voidSetAlternativeFunction+0x1d0>)
 8000c68:	430b      	orrs	r3, r1
 8000c6a:	6213      	str	r3, [r2, #32]
 8000c6c:	e061      	b.n	8000d32 <GPIO_voidSetAlternativeFunction+0x1b2>
 8000c6e:	2304      	movs	r3, #4
 8000c70:	73fb      	strb	r3, [r7, #15]
 8000c72:	e05e      	b.n	8000d32 <GPIO_voidSetAlternativeFunction+0x1b2>
 8000c74:	79bb      	ldrb	r3, [r7, #6]
 8000c76:	2b07      	cmp	r3, #7
 8000c78:	d95a      	bls.n	8000d30 <GPIO_voidSetAlternativeFunction+0x1b0>
 8000c7a:	79fb      	ldrb	r3, [r7, #7]
 8000c7c:	2b03      	cmp	r3, #3
 8000c7e:	d03a      	beq.n	8000cf6 <GPIO_voidSetAlternativeFunction+0x176>
 8000c80:	2b03      	cmp	r3, #3
 8000c82:	dc52      	bgt.n	8000d2a <GPIO_voidSetAlternativeFunction+0x1aa>
 8000c84:	2b01      	cmp	r3, #1
 8000c86:	d002      	beq.n	8000c8e <GPIO_voidSetAlternativeFunction+0x10e>
 8000c88:	2b02      	cmp	r3, #2
 8000c8a:	d01a      	beq.n	8000cc2 <GPIO_voidSetAlternativeFunction+0x142>
 8000c8c:	e04d      	b.n	8000d2a <GPIO_voidSetAlternativeFunction+0x1aa>
 8000c8e:	4b2e      	ldr	r3, [pc, #184]	; (8000d48 <GPIO_voidSetAlternativeFunction+0x1c8>)
 8000c90:	6a5b      	ldr	r3, [r3, #36]	; 0x24
 8000c92:	79ba      	ldrb	r2, [r7, #6]
 8000c94:	3a08      	subs	r2, #8
 8000c96:	0092      	lsls	r2, r2, #2
 8000c98:	210f      	movs	r1, #15
 8000c9a:	fa01 f202 	lsl.w	r2, r1, r2
 8000c9e:	43d2      	mvns	r2, r2
 8000ca0:	4611      	mov	r1, r2
 8000ca2:	4a29      	ldr	r2, [pc, #164]	; (8000d48 <GPIO_voidSetAlternativeFunction+0x1c8>)
 8000ca4:	400b      	ands	r3, r1
 8000ca6:	6253      	str	r3, [r2, #36]	; 0x24
 8000ca8:	4b27      	ldr	r3, [pc, #156]	; (8000d48 <GPIO_voidSetAlternativeFunction+0x1c8>)
 8000caa:	6a5b      	ldr	r3, [r3, #36]	; 0x24
 8000cac:	7979      	ldrb	r1, [r7, #5]
 8000cae:	79ba      	ldrb	r2, [r7, #6]
 8000cb0:	3a08      	subs	r2, #8
 8000cb2:	0092      	lsls	r2, r2, #2
 8000cb4:	fa01 f202 	lsl.w	r2, r1, r2
 8000cb8:	4611      	mov	r1, r2
 8000cba:	4a23      	ldr	r2, [pc, #140]	; (8000d48 <GPIO_voidSetAlternativeFunction+0x1c8>)
 8000cbc:	430b      	orrs	r3, r1
 8000cbe:	6253      	str	r3, [r2, #36]	; 0x24
 8000cc0:	e037      	b.n	8000d32 <GPIO_voidSetAlternativeFunction+0x1b2>
 8000cc2:	4b22      	ldr	r3, [pc, #136]	; (8000d4c <GPIO_voidSetAlternativeFunction+0x1cc>)
 8000cc4:	6a5b      	ldr	r3, [r3, #36]	; 0x24
 8000cc6:	79ba      	ldrb	r2, [r7, #6]
 8000cc8:	3a08      	subs	r2, #8
 8000cca:	0092      	lsls	r2, r2, #2
 8000ccc:	210f      	movs	r1, #15
 8000cce:	fa01 f202 	lsl.w	r2, r1, r2
 8000cd2:	43d2      	mvns	r2, r2
 8000cd4:	4611      	mov	r1, r2
 8000cd6:	4a1d      	ldr	r2, [pc, #116]	; (8000d4c <GPIO_voidSetAlternativeFunction+0x1cc>)
 8000cd8:	400b      	ands	r3, r1
 8000cda:	6253      	str	r3, [r2, #36]	; 0x24
 8000cdc:	4b1b      	ldr	r3, [pc, #108]	; (8000d4c <GPIO_voidSetAlternativeFunction+0x1cc>)
 8000cde:	6a5b      	ldr	r3, [r3, #36]	; 0x24
 8000ce0:	7979      	ldrb	r1, [r7, #5]
 8000ce2:	79ba      	ldrb	r2, [r7, #6]
 8000ce4:	3a08      	subs	r2, #8
 8000ce6:	0092      	lsls	r2, r2, #2
 8000ce8:	fa01 f202 	lsl.w	r2, r1, r2
 8000cec:	4611      	mov	r1, r2
 8000cee:	4a17      	ldr	r2, [pc, #92]	; (8000d4c <GPIO_voidSetAlternativeFunction+0x1cc>)
 8000cf0:	430b      	orrs	r3, r1
 8000cf2:	6253      	str	r3, [r2, #36]	; 0x24
 8000cf4:	e01d      	b.n	8000d32 <GPIO_voidSetAlternativeFunction+0x1b2>
 8000cf6:	4b16      	ldr	r3, [pc, #88]	; (8000d50 <GPIO_voidSetAlternativeFunction+0x1d0>)
 8000cf8:	6a5b      	ldr	r3, [r3, #36]	; 0x24
 8000cfa:	79ba      	ldrb	r2, [r7, #6]
 8000cfc:	3a08      	subs	r2, #8
 8000cfe:	0092      	lsls	r2, r2, #2
 8000d00:	210f      	movs	r1, #15
 8000d02:	fa01 f202 	lsl.w	r2, r1, r2
 8000d06:	43d2      	mvns	r2, r2
 8000d08:	4611      	mov	r1, r2
 8000d0a:	4a11      	ldr	r2, [pc, #68]	; (8000d50 <GPIO_voidSetAlternativeFunction+0x1d0>)
 8000d0c:	400b      	ands	r3, r1
 8000d0e:	6253      	str	r3, [r2, #36]	; 0x24
 8000d10:	4b0f      	ldr	r3, [pc, #60]	; (8000d50 <GPIO_voidSetAlternativeFunction+0x1d0>)
 8000d12:	6a5b      	ldr	r3, [r3, #36]	; 0x24
 8000d14:	7979      	ldrb	r1, [r7, #5]
 8000d16:	79ba      	ldrb	r2, [r7, #6]
 8000d18:	3a08      	subs	r2, #8
 8000d1a:	0092      	lsls	r2, r2, #2
 8000d1c:	fa01 f202 	lsl.w	r2, r1, r2
 8000d20:	4611      	mov	r1, r2
 8000d22:	4a0b      	ldr	r2, [pc, #44]	; (8000d50 <GPIO_voidSetAlternativeFunction+0x1d0>)
 8000d24:	430b      	orrs	r3, r1
 8000d26:	6253      	str	r3, [r2, #36]	; 0x24
 8000d28:	e003      	b.n	8000d32 <GPIO_voidSetAlternativeFunction+0x1b2>
 8000d2a:	2304      	movs	r3, #4
 8000d2c:	73fb      	strb	r3, [r7, #15]
 8000d2e:	e000      	b.n	8000d32 <GPIO_voidSetAlternativeFunction+0x1b2>
 8000d30:	bf00      	nop
 8000d32:	e001      	b.n	8000d38 <GPIO_voidSetAlternativeFunction+0x1b8>
 8000d34:	2304      	movs	r3, #4
 8000d36:	73fb      	strb	r3, [r7, #15]
 8000d38:	7bfb      	ldrb	r3, [r7, #15]
 8000d3a:	4618      	mov	r0, r3
 8000d3c:	3714      	adds	r7, #20
 8000d3e:	46bd      	mov	sp, r7
 8000d40:	f85d 7b04 	ldr.w	r7, [sp], #4
 8000d44:	4770      	bx	lr
 8000d46:	bf00      	nop
 8000d48:	40020000 	.word	0x40020000
 8000d4c:	40020400 	.word	0x40020400
 8000d50:	40020800 	.word	0x40020800

08000d54 <GPIO_u8SetPinOutputSpeed>:
 8000d54:	b480      	push	{r7}
 8000d56:	b085      	sub	sp, #20
 8000d58:	af00      	add	r7, sp, #0
 8000d5a:	4603      	mov	r3, r0
 8000d5c:	71fb      	strb	r3, [r7, #7]
 8000d5e:	460b      	mov	r3, r1
 8000d60:	71bb      	strb	r3, [r7, #6]
 8000d62:	4613      	mov	r3, r2
 8000d64:	717b      	strb	r3, [r7, #5]
 8000d66:	2300      	movs	r3, #0
 8000d68:	73fb      	strb	r3, [r7, #15]
 8000d6a:	79fb      	ldrb	r3, [r7, #7]
 8000d6c:	2b01      	cmp	r3, #1
 8000d6e:	d102      	bne.n	8000d76 <GPIO_u8SetPinOutputSpeed+0x22>
 8000d70:	79bb      	ldrb	r3, [r7, #6]
 8000d72:	2b0f      	cmp	r3, #15
 8000d74:	d90e      	bls.n	8000d94 <GPIO_u8SetPinOutputSpeed+0x40>
 8000d76:	79fb      	ldrb	r3, [r7, #7]
 8000d78:	2b02      	cmp	r3, #2
 8000d7a:	d102      	bne.n	8000d82 <GPIO_u8SetPinOutputSpeed+0x2e>
 8000d7c:	79bb      	ldrb	r3, [r7, #6]
 8000d7e:	2b0f      	cmp	r3, #15
 8000d80:	d908      	bls.n	8000d94 <GPIO_u8SetPinOutputSpeed+0x40>
 8000d82:	79fb      	ldrb	r3, [r7, #7]
 8000d84:	2b03      	cmp	r3, #3
 8000d86:	d158      	bne.n	8000e3a <GPIO_u8SetPinOutputSpeed+0xe6>
 8000d88:	79bb      	ldrb	r3, [r7, #6]
 8000d8a:	2b0c      	cmp	r3, #12
 8000d8c:	d802      	bhi.n	8000d94 <GPIO_u8SetPinOutputSpeed+0x40>
 8000d8e:	79bb      	ldrb	r3, [r7, #6]
 8000d90:	2b0f      	cmp	r3, #15
 8000d92:	d852      	bhi.n	8000e3a <GPIO_u8SetPinOutputSpeed+0xe6>
 8000d94:	79fb      	ldrb	r3, [r7, #7]
 8000d96:	2b03      	cmp	r3, #3
 8000d98:	d036      	beq.n	8000e08 <GPIO_u8SetPinOutputSpeed+0xb4>
 8000d9a:	2b03      	cmp	r3, #3
 8000d9c:	dc4f      	bgt.n	8000e3e <GPIO_u8SetPinOutputSpeed+0xea>
 8000d9e:	2b01      	cmp	r3, #1
 8000da0:	d002      	beq.n	8000da8 <GPIO_u8SetPinOutputSpeed+0x54>
 8000da2:	2b02      	cmp	r3, #2
 8000da4:	d018      	beq.n	8000dd8 <GPIO_u8SetPinOutputSpeed+0x84>
 8000da6:	e04a      	b.n	8000e3e <GPIO_u8SetPinOutputSpeed+0xea>
 8000da8:	4b28      	ldr	r3, [pc, #160]	; (8000e4c <GPIO_u8SetPinOutputSpeed+0xf8>)
 8000daa:	689b      	ldr	r3, [r3, #8]
 8000dac:	79ba      	ldrb	r2, [r7, #6]
 8000dae:	0052      	lsls	r2, r2, #1
 8000db0:	2103      	movs	r1, #3
 8000db2:	fa01 f202 	lsl.w	r2, r1, r2
 8000db6:	43d2      	mvns	r2, r2
 8000db8:	4611      	mov	r1, r2
 8000dba:	4a24      	ldr	r2, [pc, #144]	; (8000e4c <GPIO_u8SetPinOutputSpeed+0xf8>)
 8000dbc:	400b      	ands	r3, r1
 8000dbe:	6093      	str	r3, [r2, #8]
 8000dc0:	4b22      	ldr	r3, [pc, #136]	; (8000e4c <GPIO_u8SetPinOutputSpeed+0xf8>)
 8000dc2:	689b      	ldr	r3, [r3, #8]
 8000dc4:	7979      	ldrb	r1, [r7, #5]
 8000dc6:	79ba      	ldrb	r2, [r7, #6]
 8000dc8:	0052      	lsls	r2, r2, #1
 8000dca:	fa01 f202 	lsl.w	r2, r1, r2
 8000dce:	4611      	mov	r1, r2
 8000dd0:	4a1e      	ldr	r2, [pc, #120]	; (8000e4c <GPIO_u8SetPinOutputSpeed+0xf8>)
 8000dd2:	430b      	orrs	r3, r1
 8000dd4:	6093      	str	r3, [r2, #8]
 8000dd6:	e02f      	b.n	8000e38 <GPIO_u8SetPinOutputSpeed+0xe4>
 8000dd8:	4b1d      	ldr	r3, [pc, #116]	; (8000e50 <GPIO_u8SetPinOutputSpeed+0xfc>)
 8000dda:	689b      	ldr	r3, [r3, #8]
 8000ddc:	79ba      	ldrb	r2, [r7, #6]
 8000dde:	0052      	lsls	r2, r2, #1
 8000de0:	2103      	movs	r1, #3
 8000de2:	fa01 f202 	lsl.w	r2, r1, r2
 8000de6:	43d2      	mvns	r2, r2
 8000de8:	4611      	mov	r1, r2
 8000dea:	4a19      	ldr	r2, [pc, #100]	; (8000e50 <GPIO_u8SetPinOutputSpeed+0xfc>)
 8000dec:	400b      	ands	r3, r1
 8000dee:	6093      	str	r3, [r2, #8]
 8000df0:	4b17      	ldr	r3, [pc, #92]	; (8000e50 <GPIO_u8SetPinOutputSpeed+0xfc>)
 8000df2:	689b      	ldr	r3, [r3, #8]
 8000df4:	7979      	ldrb	r1, [r7, #5]
 8000df6:	79ba      	ldrb	r2, [r7, #6]
 8000df8:	0052      	lsls	r2, r2, #1
 8000dfa:	fa01 f202 	lsl.w	r2, r1, r2
 8000dfe:	4611      	mov	r1, r2
 8000e00:	4a13      	ldr	r2, [pc, #76]	; (8000e50 <GPIO_u8SetPinOutputSpeed+0xfc>)
 8000e02:	430b      	orrs	r3, r1
 8000e04:	6093      	str	r3, [r2, #8]
 8000e06:	e017      	b.n	8000e38 <GPIO_u8SetPinOutputSpeed+0xe4>
 8000e08:	4b12      	ldr	r3, [pc, #72]	; (8000e54 <GPIO_u8SetPinOutputSpeed+0x100>)
 8000e0a:	689b      	ldr	r3, [r3, #8]
 8000e0c:	79ba      	ldrb	r2, [r7, #6]
 8000e0e:	0052      	lsls	r2, r2, #1
 8000e10:	2103      	movs	r1, #3
 8000e12:	fa01 f202 	lsl.w	r2, r1, r2
 8000e16:	43d2      	mvns	r2, r2
 8000e18:	4611      	mov	r1, r2
 8000e1a:	4a0e      	ldr	r2, [pc, #56]	; (8000e54 <GPIO_u8SetPinOutputSpeed+0x100>)
 8000e1c:	400b      	ands	r3, r1
 8000e1e:	6093      	str	r3, [r2, #8]
 8000e20:	4b0c      	ldr	r3, [pc, #48]	; (8000e54 <GPIO_u8SetPinOutputSpeed+0x100>)
 8000e22:	689b      	ldr	r3, [r3, #8]
 8000e24:	7979      	ldrb	r1, [r7, #5]
 8000e26:	79ba      	ldrb	r2, [r7, #6]
 8000e28:	0052      	lsls	r2, r2, #1
 8000e2a:	fa01 f202 	lsl.w	r2, r1, r2
 8000e2e:	4611      	mov	r1, r2
 8000e30:	4a08      	ldr	r2, [pc, #32]	; (8000e54 <GPIO_u8SetPinOutputSpeed+0x100>)
 8000e32:	430b      	orrs	r3, r1
 8000e34:	6093      	str	r3, [r2, #8]
 8000e36:	bf00      	nop
 8000e38:	e001      	b.n	8000e3e <GPIO_u8SetPinOutputSpeed+0xea>
 8000e3a:	2304      	movs	r3, #4
 8000e3c:	73fb      	strb	r3, [r7, #15]
 8000e3e:	7bfb      	ldrb	r3, [r7, #15]
 8000e40:	4618      	mov	r0, r3
 8000e42:	3714      	adds	r7, #20
 8000e44:	46bd      	mov	sp, r7
 8000e46:	f85d 7b04 	ldr.w	r7, [sp], #4
 8000e4a:	4770      	bx	lr
 8000e4c:	40020000 	.word	0x40020000
 8000e50:	40020400 	.word	0x40020400
 8000e54:	40020800 	.word	0x40020800

08000e58 <Link_voidEnqueueMessage>:
//         Private_Queue.elemNum++;
//     }
// }

void Link_voidEnqueueMessage(LinkMessage_t Copy_LinkMessage)
{
 8000e58:	b480      	push	{r7}
 8000e5a:	b085      	sub	sp, #20
 8000e5c:	af00      	add	r7, sp, #0
 8000e5e:	6078      	str	r0, [r7, #4]
    u8 u8SourceType = (Copy_LinkMessage.source<<4) | Copy_LinkMessage.type;
 8000e60:	793b      	ldrb	r3, [r7, #4]
 8000e62:	011b      	lsls	r3, r3, #4
 8000e64:	b25a      	sxtb	r2, r3
 8000e66:	797b      	ldrb	r3, [r7, #5]
 8000e68:	b25b      	sxtb	r3, r3
 8000e6a:	4313      	orrs	r3, r2
 8000e6c:	b25b      	sxtb	r3, r3
 8000e6e:	72fb      	strb	r3, [r7, #11]
    u8 u8CheckSum   = u8SourceType+Copy_LinkMessage.data;
 8000e70:	79ba      	ldrb	r2, [r7, #6]
 8000e72:	7afb      	ldrb	r3, [r7, #11]
 8000e74:	4413      	add	r3, r2
 8000e76:	72bb      	strb	r3, [r7, #10]

    // Lookup messages from the same SourceType
    for (int i = Private_Queue.head; i != Private_Queue.tail; i = (i+3)%MAX_QUEUE_SIZE)
 8000e78:	4b52      	ldr	r3, [pc, #328]	; (8000fc4 <Link_voidEnqueueMessage+0x16c>)
 8000e7a:	f893 3022 	ldrb.w	r3, [r3, #34]	; 0x22
 8000e7e:	60fb      	str	r3, [r7, #12]
 8000e80:	e026      	b.n	8000ed0 <Link_voidEnqueueMessage+0x78>
    {
        if (u8SourceType== Private_Queue.Arr[i])    // If sourceType exists
 8000e82:	4a50      	ldr	r2, [pc, #320]	; (8000fc4 <Link_voidEnqueueMessage+0x16c>)
 8000e84:	68fb      	ldr	r3, [r7, #12]
 8000e86:	4413      	add	r3, r2
 8000e88:	781b      	ldrb	r3, [r3, #0]
 8000e8a:	7afa      	ldrb	r2, [r7, #11]
 8000e8c:	429a      	cmp	r2, r3
 8000e8e:	d112      	bne.n	8000eb6 <Link_voidEnqueueMessage+0x5e>
        {
            if (Copy_LinkMessage.data == Private_Queue.Arr[i+1])
 8000e90:	79ba      	ldrb	r2, [r7, #6]
 8000e92:	68fb      	ldr	r3, [r7, #12]
 8000e94:	3301      	adds	r3, #1
 8000e96:	494b      	ldr	r1, [pc, #300]	; (8000fc4 <Link_voidEnqueueMessage+0x16c>)
 8000e98:	5ccb      	ldrb	r3, [r1, r3]
 8000e9a:	429a      	cmp	r2, r3
 8000e9c:	f000 808c 	beq.w	8000fb8 <Link_voidEnqueueMessage+0x160>
                return;
            else
            {
            	// Update the data if the message has changed
                Copy_LinkMessage.data = Private_Queue.Arr[i+1];
 8000ea0:	68fb      	ldr	r3, [r7, #12]
 8000ea2:	3301      	adds	r3, #1
 8000ea4:	4a47      	ldr	r2, [pc, #284]	; (8000fc4 <Link_voidEnqueueMessage+0x16c>)
 8000ea6:	5cd3      	ldrb	r3, [r2, r3]
 8000ea8:	71bb      	strb	r3, [r7, #6]
                // Recalculate Checksum
                Private_Queue.Arr[i+2] = u8CheckSum;
 8000eaa:	68fb      	ldr	r3, [r7, #12]
 8000eac:	3302      	adds	r3, #2
 8000eae:	4945      	ldr	r1, [pc, #276]	; (8000fc4 <Link_voidEnqueueMessage+0x16c>)
 8000eb0:	7aba      	ldrb	r2, [r7, #10]
 8000eb2:	54ca      	strb	r2, [r1, r3]
                return;
 8000eb4:	e081      	b.n	8000fba <Link_voidEnqueueMessage+0x162>
    for (int i = Private_Queue.head; i != Private_Queue.tail; i = (i+3)%MAX_QUEUE_SIZE)
 8000eb6:	68fb      	ldr	r3, [r7, #12]
 8000eb8:	1cda      	adds	r2, r3, #3
 8000eba:	4b43      	ldr	r3, [pc, #268]	; (8000fc8 <Link_voidEnqueueMessage+0x170>)
 8000ebc:	fb83 1302 	smull	r1, r3, r3, r2
 8000ec0:	10d9      	asrs	r1, r3, #3
 8000ec2:	17d3      	asrs	r3, r2, #31
 8000ec4:	1ac9      	subs	r1, r1, r3
 8000ec6:	460b      	mov	r3, r1
 8000ec8:	015b      	lsls	r3, r3, #5
 8000eca:	440b      	add	r3, r1
 8000ecc:	1ad3      	subs	r3, r2, r3
 8000ece:	60fb      	str	r3, [r7, #12]
 8000ed0:	4b3c      	ldr	r3, [pc, #240]	; (8000fc4 <Link_voidEnqueueMessage+0x16c>)
 8000ed2:	f893 3023 	ldrb.w	r3, [r3, #35]	; 0x23
 8000ed6:	461a      	mov	r2, r3
 8000ed8:	68fb      	ldr	r3, [r7, #12]
 8000eda:	4293      	cmp	r3, r2
 8000edc:	d1d1      	bne.n	8000e82 <Link_voidEnqueueMessage+0x2a>
            }
        }
    }

    //
    if (Private_Queue.head == Private_Queue.tail)
 8000ede:	4b39      	ldr	r3, [pc, #228]	; (8000fc4 <Link_voidEnqueueMessage+0x16c>)
 8000ee0:	f893 2022 	ldrb.w	r2, [r3, #34]	; 0x22
 8000ee4:	4b37      	ldr	r3, [pc, #220]	; (8000fc4 <Link_voidEnqueueMessage+0x16c>)
 8000ee6:	f893 3023 	ldrb.w	r3, [r3, #35]	; 0x23
 8000eea:	429a      	cmp	r2, r3
 8000eec:	d12f      	bne.n	8000f4e <Link_voidEnqueueMessage+0xf6>
    {
        // Add Message Source and Type
        Private_Queue.Arr[Private_Queue.tail] = u8SourceType;
 8000eee:	4b35      	ldr	r3, [pc, #212]	; (8000fc4 <Link_voidEnqueueMessage+0x16c>)
 8000ef0:	f893 3023 	ldrb.w	r3, [r3, #35]	; 0x23
 8000ef4:	4619      	mov	r1, r3
 8000ef6:	4a33      	ldr	r2, [pc, #204]	; (8000fc4 <Link_voidEnqueueMessage+0x16c>)
 8000ef8:	7afb      	ldrb	r3, [r7, #11]
 8000efa:	5453      	strb	r3, [r2, r1]

        // Add Message Data
        Private_Queue.Arr[Private_Queue.tail+1] = Copy_LinkMessage.data;
 8000efc:	4b31      	ldr	r3, [pc, #196]	; (8000fc4 <Link_voidEnqueueMessage+0x16c>)
 8000efe:	f893 3023 	ldrb.w	r3, [r3, #35]	; 0x23
 8000f02:	3301      	adds	r3, #1
 8000f04:	79b9      	ldrb	r1, [r7, #6]
 8000f06:	4a2f      	ldr	r2, [pc, #188]	; (8000fc4 <Link_voidEnqueueMessage+0x16c>)
 8000f08:	54d1      	strb	r1, [r2, r3]

        // Add a Checksum
        Private_Queue.Arr[Private_Queue.tail+2] = u8CheckSum;
 8000f0a:	4b2e      	ldr	r3, [pc, #184]	; (8000fc4 <Link_voidEnqueueMessage+0x16c>)
 8000f0c:	f893 3023 	ldrb.w	r3, [r3, #35]	; 0x23
 8000f10:	3302      	adds	r3, #2
 8000f12:	492c      	ldr	r1, [pc, #176]	; (8000fc4 <Link_voidEnqueueMessage+0x16c>)
 8000f14:	7aba      	ldrb	r2, [r7, #10]
 8000f16:	54ca      	strb	r2, [r1, r3]

        Private_Queue.tail = (Private_Queue.tail+3)%MAX_QUEUE_SIZE;
 8000f18:	4b2a      	ldr	r3, [pc, #168]	; (8000fc4 <Link_voidEnqueueMessage+0x16c>)
 8000f1a:	f893 3023 	ldrb.w	r3, [r3, #35]	; 0x23
 8000f1e:	1cda      	adds	r2, r3, #3
 8000f20:	4b29      	ldr	r3, [pc, #164]	; (8000fc8 <Link_voidEnqueueMessage+0x170>)
 8000f22:	fb83 1302 	smull	r1, r3, r3, r2
 8000f26:	10d9      	asrs	r1, r3, #3
 8000f28:	17d3      	asrs	r3, r2, #31
 8000f2a:	1ac9      	subs	r1, r1, r3
 8000f2c:	460b      	mov	r3, r1
 8000f2e:	015b      	lsls	r3, r3, #5
 8000f30:	440b      	add	r3, r1
 8000f32:	1ad1      	subs	r1, r2, r3
 8000f34:	b2ca      	uxtb	r2, r1
 8000f36:	4b23      	ldr	r3, [pc, #140]	; (8000fc4 <Link_voidEnqueueMessage+0x16c>)
 8000f38:	f883 2023 	strb.w	r2, [r3, #35]	; 0x23
        Private_Queue.elemNum+=3;
 8000f3c:	4b21      	ldr	r3, [pc, #132]	; (8000fc4 <Link_voidEnqueueMessage+0x16c>)
 8000f3e:	f893 3021 	ldrb.w	r3, [r3, #33]	; 0x21
 8000f42:	3303      	adds	r3, #3
 8000f44:	b2da      	uxtb	r2, r3
 8000f46:	4b1f      	ldr	r3, [pc, #124]	; (8000fc4 <Link_voidEnqueueMessage+0x16c>)
 8000f48:	f883 2021 	strb.w	r2, [r3, #33]	; 0x21
 8000f4c:	e035      	b.n	8000fba <Link_voidEnqueueMessage+0x162>
    }
    else if (Private_Queue.elemNum < MAX_QUEUE_SIZE)
 8000f4e:	4b1d      	ldr	r3, [pc, #116]	; (8000fc4 <Link_voidEnqueueMessage+0x16c>)
 8000f50:	f893 3021 	ldrb.w	r3, [r3, #33]	; 0x21
 8000f54:	2b20      	cmp	r3, #32
 8000f56:	d830      	bhi.n	8000fba <Link_voidEnqueueMessage+0x162>
    {
        // Add Message Source and Type
        Private_Queue.Arr[Private_Queue.tail] = u8SourceType;
 8000f58:	4b1a      	ldr	r3, [pc, #104]	; (8000fc4 <Link_voidEnqueueMessage+0x16c>)
 8000f5a:	f893 3023 	ldrb.w	r3, [r3, #35]	; 0x23
 8000f5e:	4619      	mov	r1, r3
 8000f60:	4a18      	ldr	r2, [pc, #96]	; (8000fc4 <Link_voidEnqueueMessage+0x16c>)
 8000f62:	7afb      	ldrb	r3, [r7, #11]
 8000f64:	5453      	strb	r3, [r2, r1]

        // Add Message Data
        Private_Queue.Arr[Private_Queue.tail+1] = Copy_LinkMessage.data;
 8000f66:	4b17      	ldr	r3, [pc, #92]	; (8000fc4 <Link_voidEnqueueMessage+0x16c>)
 8000f68:	f893 3023 	ldrb.w	r3, [r3, #35]	; 0x23
 8000f6c:	3301      	adds	r3, #1
 8000f6e:	79b9      	ldrb	r1, [r7, #6]
 8000f70:	4a14      	ldr	r2, [pc, #80]	; (8000fc4 <Link_voidEnqueueMessage+0x16c>)
 8000f72:	54d1      	strb	r1, [r2, r3]

        // Add a Checksum
        Private_Queue.Arr[Private_Queue.tail+2] = u8CheckSum;
 8000f74:	4b13      	ldr	r3, [pc, #76]	; (8000fc4 <Link_voidEnqueueMessage+0x16c>)
 8000f76:	f893 3023 	ldrb.w	r3, [r3, #35]	; 0x23
 8000f7a:	3302      	adds	r3, #2
 8000f7c:	4911      	ldr	r1, [pc, #68]	; (8000fc4 <Link_voidEnqueueMessage+0x16c>)
 8000f7e:	7aba      	ldrb	r2, [r7, #10]
 8000f80:	54ca      	strb	r2, [r1, r3]

        Private_Queue.tail = (Private_Queue.tail+3)%MAX_QUEUE_SIZE;
 8000f82:	4b10      	ldr	r3, [pc, #64]	; (8000fc4 <Link_voidEnqueueMessage+0x16c>)
 8000f84:	f893 3023 	ldrb.w	r3, [r3, #35]	; 0x23
 8000f88:	1cda      	adds	r2, r3, #3
 8000f8a:	4b0f      	ldr	r3, [pc, #60]	; (8000fc8 <Link_voidEnqueueMessage+0x170>)
 8000f8c:	fb83 1302 	smull	r1, r3, r3, r2
 8000f90:	10d9      	asrs	r1, r3, #3
 8000f92:	17d3      	asrs	r3, r2, #31
 8000f94:	1ac9      	subs	r1, r1, r3
 8000f96:	460b      	mov	r3, r1
 8000f98:	015b      	lsls	r3, r3, #5
 8000f9a:	440b      	add	r3, r1
 8000f9c:	1ad1      	subs	r1, r2, r3
 8000f9e:	b2ca      	uxtb	r2, r1
 8000fa0:	4b08      	ldr	r3, [pc, #32]	; (8000fc4 <Link_voidEnqueueMessage+0x16c>)
 8000fa2:	f883 2023 	strb.w	r2, [r3, #35]	; 0x23
        Private_Queue.elemNum+=3;
 8000fa6:	4b07      	ldr	r3, [pc, #28]	; (8000fc4 <Link_voidEnqueueMessage+0x16c>)
 8000fa8:	f893 3021 	ldrb.w	r3, [r3, #33]	; 0x21
 8000fac:	3303      	adds	r3, #3
 8000fae:	b2da      	uxtb	r2, r3
 8000fb0:	4b04      	ldr	r3, [pc, #16]	; (8000fc4 <Link_voidEnqueueMessage+0x16c>)
 8000fb2:	f883 2021 	strb.w	r2, [r3, #33]	; 0x21
 8000fb6:	e000      	b.n	8000fba <Link_voidEnqueueMessage+0x162>
                return;
 8000fb8:	bf00      	nop
    }
}
 8000fba:	3714      	adds	r7, #20
 8000fbc:	46bd      	mov	sp, r7
 8000fbe:	f85d 7b04 	ldr.w	r7, [sp], #4
 8000fc2:	4770      	bx	lr
 8000fc4:	20000040 	.word	0x20000040
 8000fc8:	3e0f83e1 	.word	0x3e0f83e1

08000fcc <Link_u8SendDequeueMessage>:

u8 Link_u8SendDequeueMessage()
{
 8000fcc:	b580      	push	{r7, lr}
 8000fce:	b082      	sub	sp, #8
 8000fd0:	af00      	add	r7, sp, #0
	u8 u8Message_send = 0;
 8000fd2:	2300      	movs	r3, #0
 8000fd4:	713b      	strb	r3, [r7, #4]
	u8 u8Message_recvd= 0;
 8000fd6:	2300      	movs	r3, #0
 8000fd8:	70fb      	strb	r3, [r7, #3]

    u8 RL=0, RH=0;
 8000fda:	2300      	movs	r3, #0
 8000fdc:	70bb      	strb	r3, [r7, #2]
 8000fde:	2300      	movs	r3, #0
 8000fe0:	707b      	strb	r3, [r7, #1]
    u8 tempL=0,tempH=0;
 8000fe2:	2300      	movs	r3, #0
 8000fe4:	71fb      	strb	r3, [r7, #7]
 8000fe6:	2300      	movs	r3, #0
 8000fe8:	71bb      	strb	r3, [r7, #6]

    while (Private_Queue.elemNum > 0)
 8000fea:	e060      	b.n	80010ae <Link_u8SendDequeueMessage+0xe2>
    {
        // Select the Master
        
    	u8Message_send = Private_Queue.Arr[Private_Queue.head]; // get a copy of the head element
 8000fec:	4b3d      	ldr	r3, [pc, #244]	; (80010e4 <Link_u8SendDequeueMessage+0x118>)
 8000fee:	f893 3022 	ldrb.w	r3, [r3, #34]	; 0x22
 8000ff2:	461a      	mov	r2, r3
 8000ff4:	4b3b      	ldr	r3, [pc, #236]	; (80010e4 <Link_u8SendDequeueMessage+0x118>)
 8000ff6:	5c9b      	ldrb	r3, [r3, r2]
 8000ff8:	713b      	strb	r3, [r7, #4]
    	u8Message_recvd=SPI_voidTransceive(LINK_RaspberryPi, u8Message_send);
 8000ffa:	793b      	ldrb	r3, [r7, #4]
 8000ffc:	b29b      	uxth	r3, r3
 8000ffe:	4619      	mov	r1, r3
 8001000:	4839      	ldr	r0, [pc, #228]	; (80010e8 <Link_u8SendDequeueMessage+0x11c>)
 8001002:	f000 fa5d 	bl	80014c0 <SPI_voidTransceive>
 8001006:	4603      	mov	r3, r0
 8001008:	70fb      	strb	r3, [r7, #3]
        GPIO_u8FastControlPinValue(LINK_INTERRUPT_PORT, LINK_INTERRUPT_PIN, GPIO_LOW);
 800100a:	2200      	movs	r2, #0
 800100c:	2108      	movs	r1, #8
 800100e:	2001      	movs	r0, #1
 8001010:	f7ff fc52 	bl	80008b8 <GPIO_u8FastControlPinValue>
        // De-select the master
        
        // Check Message Integrity
        RL = u8Message_recvd&0xF;
 8001014:	78fb      	ldrb	r3, [r7, #3]
 8001016:	f003 030f 	and.w	r3, r3, #15
 800101a:	70bb      	strb	r3, [r7, #2]
        RH = (u8Message_recvd>>4)&0xF;
 800101c:	78fb      	ldrb	r3, [r7, #3]
 800101e:	091b      	lsrs	r3, r3, #4
 8001020:	707b      	strb	r3, [r7, #1]

        // Counts the number of ones in each bit
        for (u8 i=0; i<4; i++)
 8001022:	2300      	movs	r3, #0
 8001024:	717b      	strb	r3, [r7, #5]
 8001026:	e018      	b.n	800105a <Link_u8SendDequeueMessage+0x8e>
        {
            tempH+=(RH>>i)&1;
 8001028:	787a      	ldrb	r2, [r7, #1]
 800102a:	797b      	ldrb	r3, [r7, #5]
 800102c:	fa42 f303 	asr.w	r3, r2, r3
 8001030:	b2db      	uxtb	r3, r3
 8001032:	f003 0301 	and.w	r3, r3, #1
 8001036:	b2da      	uxtb	r2, r3
 8001038:	79bb      	ldrb	r3, [r7, #6]
 800103a:	4413      	add	r3, r2
 800103c:	71bb      	strb	r3, [r7, #6]
            tempL+=(RL>>i)&1;
 800103e:	78ba      	ldrb	r2, [r7, #2]
 8001040:	797b      	ldrb	r3, [r7, #5]
 8001042:	fa42 f303 	asr.w	r3, r2, r3
 8001046:	b2db      	uxtb	r3, r3
 8001048:	f003 0301 	and.w	r3, r3, #1
 800104c:	b2da      	uxtb	r2, r3
 800104e:	79fb      	ldrb	r3, [r7, #7]
 8001050:	4413      	add	r3, r2
 8001052:	71fb      	strb	r3, [r7, #7]
        for (u8 i=0; i<4; i++)
 8001054:	797b      	ldrb	r3, [r7, #5]
 8001056:	3301      	adds	r3, #1
 8001058:	717b      	strb	r3, [r7, #5]
 800105a:	797b      	ldrb	r3, [r7, #5]
 800105c:	2b03      	cmp	r3, #3
 800105e:	d9e3      	bls.n	8001028 <Link_u8SendDequeueMessage+0x5c>
        }

        tempH/=2;
 8001060:	79bb      	ldrb	r3, [r7, #6]
 8001062:	085b      	lsrs	r3, r3, #1
 8001064:	71bb      	strb	r3, [r7, #6]
        tempL/=2;
 8001066:	79fb      	ldrb	r3, [r7, #7]
 8001068:	085b      	lsrs	r3, r3, #1
 800106a:	71fb      	strb	r3, [r7, #7]

        Private_Queue.Arr[Private_Queue.head] = 0xFF;
 800106c:	4b1d      	ldr	r3, [pc, #116]	; (80010e4 <Link_u8SendDequeueMessage+0x118>)
 800106e:	f893 3022 	ldrb.w	r3, [r3, #34]	; 0x22
 8001072:	461a      	mov	r2, r3
 8001074:	4b1b      	ldr	r3, [pc, #108]	; (80010e4 <Link_u8SendDequeueMessage+0x118>)
 8001076:	21ff      	movs	r1, #255	; 0xff
 8001078:	5499      	strb	r1, [r3, r2]

        Private_Queue.head = (Private_Queue.head+1)%MAX_QUEUE_SIZE;
 800107a:	4b1a      	ldr	r3, [pc, #104]	; (80010e4 <Link_u8SendDequeueMessage+0x118>)
 800107c:	f893 3022 	ldrb.w	r3, [r3, #34]	; 0x22
 8001080:	1c5a      	adds	r2, r3, #1
 8001082:	4b1a      	ldr	r3, [pc, #104]	; (80010ec <Link_u8SendDequeueMessage+0x120>)
 8001084:	fb83 1302 	smull	r1, r3, r3, r2
 8001088:	10d9      	asrs	r1, r3, #3
 800108a:	17d3      	asrs	r3, r2, #31
 800108c:	1ac9      	subs	r1, r1, r3
 800108e:	460b      	mov	r3, r1
 8001090:	015b      	lsls	r3, r3, #5
 8001092:	440b      	add	r3, r1
 8001094:	1ad1      	subs	r1, r2, r3
 8001096:	b2ca      	uxtb	r2, r1
 8001098:	4b12      	ldr	r3, [pc, #72]	; (80010e4 <Link_u8SendDequeueMessage+0x118>)
 800109a:	f883 2022 	strb.w	r2, [r3, #34]	; 0x22
        Private_Queue.elemNum--;
 800109e:	4b11      	ldr	r3, [pc, #68]	; (80010e4 <Link_u8SendDequeueMessage+0x118>)
 80010a0:	f893 3021 	ldrb.w	r3, [r3, #33]	; 0x21
 80010a4:	3b01      	subs	r3, #1
 80010a6:	b2da      	uxtb	r2, r3
 80010a8:	4b0e      	ldr	r3, [pc, #56]	; (80010e4 <Link_u8SendDequeueMessage+0x118>)
 80010aa:	f883 2021 	strb.w	r2, [r3, #33]	; 0x21
    while (Private_Queue.elemNum > 0)
 80010ae:	4b0d      	ldr	r3, [pc, #52]	; (80010e4 <Link_u8SendDequeueMessage+0x118>)
 80010b0:	f893 3021 	ldrb.w	r3, [r3, #33]	; 0x21
 80010b4:	2b00      	cmp	r3, #0
 80010b6:	d199      	bne.n	8000fec <Link_u8SendDequeueMessage+0x20>
    }

    GPIO_u8FastControlPinValue(LINK_INTERRUPT_PORT, LINK_INTERRUPT_PIN, GPIO_HIGH);
 80010b8:	2201      	movs	r2, #1
 80010ba:	2108      	movs	r1, #8
 80010bc:	2001      	movs	r0, #1
 80010be:	f7ff fbfb 	bl	80008b8 <GPIO_u8FastControlPinValue>

    if (tempH > tempL)
 80010c2:	79ba      	ldrb	r2, [r7, #6]
 80010c4:	79fb      	ldrb	r3, [r7, #7]
 80010c6:	429a      	cmp	r2, r3
 80010c8:	d901      	bls.n	80010ce <Link_u8SendDequeueMessage+0x102>
        return 0xF0;	//Open the left doors.
 80010ca:	23f0      	movs	r3, #240	; 0xf0
 80010cc:	e006      	b.n	80010dc <Link_u8SendDequeueMessage+0x110>
    else if (tempH < tempL)
 80010ce:	79ba      	ldrb	r2, [r7, #6]
 80010d0:	79fb      	ldrb	r3, [r7, #7]
 80010d2:	429a      	cmp	r2, r3
 80010d4:	d201      	bcs.n	80010da <Link_u8SendDequeueMessage+0x10e>
        return 0x0F;	//Open the right doors.
 80010d6:	230f      	movs	r3, #15
 80010d8:	e000      	b.n	80010dc <Link_u8SendDequeueMessage+0x110>
    else
    	return 0;		//Do nothing.
 80010da:	2300      	movs	r3, #0
}
 80010dc:	4618      	mov	r0, r3
 80010de:	3708      	adds	r7, #8
 80010e0:	46bd      	mov	sp, r7
 80010e2:	bd80      	pop	{r7, pc}
 80010e4:	20000040 	.word	0x20000040
 80010e8:	40003800 	.word	0x40003800
 80010ec:	3e0f83e1 	.word	0x3e0f83e1

080010f0 <RCC_u8SystemClkInitialization>:
 80010f0:	b480      	push	{r7}
 80010f2:	b085      	sub	sp, #20
 80010f4:	af00      	add	r7, sp, #0
 80010f6:	2300      	movs	r3, #0
 80010f8:	73fb      	strb	r3, [r7, #15]
 80010fa:	4b54      	ldr	r3, [pc, #336]	; (800124c <RCC_u8SystemClkInitialization+0x15c>)
 80010fc:	681b      	ldr	r3, [r3, #0]
 80010fe:	4a53      	ldr	r2, [pc, #332]	; (800124c <RCC_u8SystemClkInitialization+0x15c>)
 8001100:	f443 2300 	orr.w	r3, r3, #524288	; 0x80000
 8001104:	6013      	str	r3, [r2, #0]
 8001106:	4b51      	ldr	r3, [pc, #324]	; (800124c <RCC_u8SystemClkInitialization+0x15c>)
 8001108:	681b      	ldr	r3, [r3, #0]
 800110a:	4a50      	ldr	r2, [pc, #320]	; (800124c <RCC_u8SystemClkInitialization+0x15c>)
 800110c:	f423 2380 	bic.w	r3, r3, #262144	; 0x40000
 8001110:	6013      	str	r3, [r2, #0]
 8001112:	4b4e      	ldr	r3, [pc, #312]	; (800124c <RCC_u8SystemClkInitialization+0x15c>)
 8001114:	681b      	ldr	r3, [r3, #0]
 8001116:	4a4d      	ldr	r2, [pc, #308]	; (800124c <RCC_u8SystemClkInitialization+0x15c>)
 8001118:	f023 0301 	bic.w	r3, r3, #1
 800111c:	6013      	str	r3, [r2, #0]
 800111e:	4b4b      	ldr	r3, [pc, #300]	; (800124c <RCC_u8SystemClkInitialization+0x15c>)
 8001120:	681b      	ldr	r3, [r3, #0]
 8001122:	4a4a      	ldr	r2, [pc, #296]	; (800124c <RCC_u8SystemClkInitialization+0x15c>)
 8001124:	f443 3380 	orr.w	r3, r3, #65536	; 0x10000
 8001128:	6013      	str	r3, [r2, #0]
 800112a:	4b48      	ldr	r3, [pc, #288]	; (800124c <RCC_u8SystemClkInitialization+0x15c>)
 800112c:	681b      	ldr	r3, [r3, #0]
 800112e:	4a47      	ldr	r2, [pc, #284]	; (800124c <RCC_u8SystemClkInitialization+0x15c>)
 8001130:	f023 7380 	bic.w	r3, r3, #16777216	; 0x1000000
 8001134:	6013      	str	r3, [r2, #0]
 8001136:	4b45      	ldr	r3, [pc, #276]	; (800124c <RCC_u8SystemClkInitialization+0x15c>)
 8001138:	681b      	ldr	r3, [r3, #0]
 800113a:	4a44      	ldr	r2, [pc, #272]	; (800124c <RCC_u8SystemClkInitialization+0x15c>)
 800113c:	f023 6380 	bic.w	r3, r3, #67108864	; 0x4000000
 8001140:	6013      	str	r3, [r2, #0]
 8001142:	4b42      	ldr	r3, [pc, #264]	; (800124c <RCC_u8SystemClkInitialization+0x15c>)
 8001144:	689b      	ldr	r3, [r3, #8]
 8001146:	4a41      	ldr	r2, [pc, #260]	; (800124c <RCC_u8SystemClkInitialization+0x15c>)
 8001148:	f023 0380 	bic.w	r3, r3, #128	; 0x80
 800114c:	6093      	str	r3, [r2, #8]
 800114e:	4b3f      	ldr	r3, [pc, #252]	; (800124c <RCC_u8SystemClkInitialization+0x15c>)
 8001150:	689b      	ldr	r3, [r3, #8]
 8001152:	4a3e      	ldr	r2, [pc, #248]	; (800124c <RCC_u8SystemClkInitialization+0x15c>)
 8001154:	f423 5380 	bic.w	r3, r3, #4096	; 0x1000
 8001158:	6093      	str	r3, [r2, #8]
 800115a:	4b3c      	ldr	r3, [pc, #240]	; (800124c <RCC_u8SystemClkInitialization+0x15c>)
 800115c:	689b      	ldr	r3, [r3, #8]
 800115e:	4a3b      	ldr	r2, [pc, #236]	; (800124c <RCC_u8SystemClkInitialization+0x15c>)
 8001160:	f423 4300 	bic.w	r3, r3, #32768	; 0x8000
 8001164:	6093      	str	r3, [r2, #8]
 8001166:	4b39      	ldr	r3, [pc, #228]	; (800124c <RCC_u8SystemClkInitialization+0x15c>)
 8001168:	685b      	ldr	r3, [r3, #4]
 800116a:	4a38      	ldr	r2, [pc, #224]	; (800124c <RCC_u8SystemClkInitialization+0x15c>)
 800116c:	f023 033f 	bic.w	r3, r3, #63	; 0x3f
 8001170:	6053      	str	r3, [r2, #4]
 8001172:	4b36      	ldr	r3, [pc, #216]	; (800124c <RCC_u8SystemClkInitialization+0x15c>)
 8001174:	685b      	ldr	r3, [r3, #4]
 8001176:	4a35      	ldr	r2, [pc, #212]	; (800124c <RCC_u8SystemClkInitialization+0x15c>)
 8001178:	f043 033f 	orr.w	r3, r3, #63	; 0x3f
 800117c:	6053      	str	r3, [r2, #4]
 800117e:	4b33      	ldr	r3, [pc, #204]	; (800124c <RCC_u8SystemClkInitialization+0x15c>)
 8001180:	685b      	ldr	r3, [r3, #4]
 8001182:	4a32      	ldr	r2, [pc, #200]	; (800124c <RCC_u8SystemClkInitialization+0x15c>)
 8001184:	f423 43ff 	bic.w	r3, r3, #32640	; 0x7f80
 8001188:	f023 0340 	bic.w	r3, r3, #64	; 0x40
 800118c:	6053      	str	r3, [r2, #4]
 800118e:	4b2f      	ldr	r3, [pc, #188]	; (800124c <RCC_u8SystemClkInitialization+0x15c>)
 8001190:	685b      	ldr	r3, [r3, #4]
 8001192:	4a2e      	ldr	r2, [pc, #184]	; (800124c <RCC_u8SystemClkInitialization+0x15c>)
 8001194:	f443 5340 	orr.w	r3, r3, #12288	; 0x3000
 8001198:	6053      	str	r3, [r2, #4]
 800119a:	4b2c      	ldr	r3, [pc, #176]	; (800124c <RCC_u8SystemClkInitialization+0x15c>)
 800119c:	685b      	ldr	r3, [r3, #4]
 800119e:	4a2b      	ldr	r2, [pc, #172]	; (800124c <RCC_u8SystemClkInitialization+0x15c>)
 80011a0:	f423 3380 	bic.w	r3, r3, #65536	; 0x10000
 80011a4:	6053      	str	r3, [r2, #4]
 80011a6:	4b29      	ldr	r3, [pc, #164]	; (800124c <RCC_u8SystemClkInitialization+0x15c>)
 80011a8:	685b      	ldr	r3, [r3, #4]
 80011aa:	4a28      	ldr	r2, [pc, #160]	; (800124c <RCC_u8SystemClkInitialization+0x15c>)
 80011ac:	f423 3300 	bic.w	r3, r3, #131072	; 0x20000
 80011b0:	6053      	str	r3, [r2, #4]
 80011b2:	4b26      	ldr	r3, [pc, #152]	; (800124c <RCC_u8SystemClkInitialization+0x15c>)
 80011b4:	685b      	ldr	r3, [r3, #4]
 80011b6:	4a25      	ldr	r2, [pc, #148]	; (800124c <RCC_u8SystemClkInitialization+0x15c>)
 80011b8:	f423 0380 	bic.w	r3, r3, #4194304	; 0x400000
 80011bc:	6053      	str	r3, [r2, #4]
 80011be:	2303      	movs	r3, #3
 80011c0:	60bb      	str	r3, [r7, #8]
 80011c2:	68bb      	ldr	r3, [r7, #8]
 80011c4:	4a22      	ldr	r2, [pc, #136]	; (8001250 <RCC_u8SystemClkInitialization+0x160>)
 80011c6:	fb02 f303 	mul.w	r3, r2, r3
 80011ca:	085b      	lsrs	r3, r3, #1
 80011cc:	607b      	str	r3, [r7, #4]
 80011ce:	687b      	ldr	r3, [r7, #4]
 80011d0:	4a20      	ldr	r2, [pc, #128]	; (8001254 <RCC_u8SystemClkInitialization+0x164>)
 80011d2:	4293      	cmp	r3, r2
 80011d4:	d903      	bls.n	80011de <RCC_u8SystemClkInitialization+0xee>
 80011d6:	2303      	movs	r3, #3
 80011d8:	73fb      	strb	r3, [r7, #15]
 80011da:	7bfb      	ldrb	r3, [r7, #15]
 80011dc:	e030      	b.n	8001240 <RCC_u8SystemClkInitialization+0x150>
 80011de:	4b1b      	ldr	r3, [pc, #108]	; (800124c <RCC_u8SystemClkInitialization+0x15c>)
 80011e0:	689b      	ldr	r3, [r3, #8]
 80011e2:	4a1a      	ldr	r2, [pc, #104]	; (800124c <RCC_u8SystemClkInitialization+0x15c>)
 80011e4:	f023 6380 	bic.w	r3, r3, #67108864	; 0x4000000
 80011e8:	6093      	str	r3, [r2, #8]
 80011ea:	4b18      	ldr	r3, [pc, #96]	; (800124c <RCC_u8SystemClkInitialization+0x15c>)
 80011ec:	689b      	ldr	r3, [r3, #8]
 80011ee:	4a17      	ldr	r2, [pc, #92]	; (800124c <RCC_u8SystemClkInitialization+0x15c>)
 80011f0:	f023 5300 	bic.w	r3, r3, #536870912	; 0x20000000
 80011f4:	6093      	str	r3, [r2, #8]
 80011f6:	4b15      	ldr	r3, [pc, #84]	; (800124c <RCC_u8SystemClkInitialization+0x15c>)
 80011f8:	689b      	ldr	r3, [r3, #8]
 80011fa:	4a14      	ldr	r2, [pc, #80]	; (800124c <RCC_u8SystemClkInitialization+0x15c>)
 80011fc:	f423 1300 	bic.w	r3, r3, #2097152	; 0x200000
 8001200:	6093      	str	r3, [r2, #8]
 8001202:	4b12      	ldr	r3, [pc, #72]	; (800124c <RCC_u8SystemClkInitialization+0x15c>)
 8001204:	689b      	ldr	r3, [r3, #8]
 8001206:	4a11      	ldr	r2, [pc, #68]	; (800124c <RCC_u8SystemClkInitialization+0x15c>)
 8001208:	f423 0380 	bic.w	r3, r3, #4194304	; 0x400000
 800120c:	6093      	str	r3, [r2, #8]
 800120e:	4b0f      	ldr	r3, [pc, #60]	; (800124c <RCC_u8SystemClkInitialization+0x15c>)
 8001210:	689b      	ldr	r3, [r3, #8]
 8001212:	4a0e      	ldr	r2, [pc, #56]	; (800124c <RCC_u8SystemClkInitialization+0x15c>)
 8001214:	f023 4380 	bic.w	r3, r3, #1073741824	; 0x40000000
 8001218:	6093      	str	r3, [r2, #8]
 800121a:	4b0c      	ldr	r3, [pc, #48]	; (800124c <RCC_u8SystemClkInitialization+0x15c>)
 800121c:	689b      	ldr	r3, [r3, #8]
 800121e:	4a0b      	ldr	r2, [pc, #44]	; (800124c <RCC_u8SystemClkInitialization+0x15c>)
 8001220:	f023 4300 	bic.w	r3, r3, #2147483648	; 0x80000000
 8001224:	6093      	str	r3, [r2, #8]
 8001226:	4b09      	ldr	r3, [pc, #36]	; (800124c <RCC_u8SystemClkInitialization+0x15c>)
 8001228:	689b      	ldr	r3, [r3, #8]
 800122a:	4a08      	ldr	r2, [pc, #32]	; (800124c <RCC_u8SystemClkInitialization+0x15c>)
 800122c:	f043 0301 	orr.w	r3, r3, #1
 8001230:	6093      	str	r3, [r2, #8]
 8001232:	4b06      	ldr	r3, [pc, #24]	; (800124c <RCC_u8SystemClkInitialization+0x15c>)
 8001234:	689b      	ldr	r3, [r3, #8]
 8001236:	4a05      	ldr	r2, [pc, #20]	; (800124c <RCC_u8SystemClkInitialization+0x15c>)
 8001238:	f023 0302 	bic.w	r3, r3, #2
 800123c:	6093      	str	r3, [r2, #8]
 800123e:	7bfb      	ldrb	r3, [r7, #15]
 8001240:	4618      	mov	r0, r3
 8001242:	3714      	adds	r7, #20
 8001244:	46bd      	mov	sp, r7
 8001246:	f85d 7b04 	ldr.w	r7, [sp], #4
 800124a:	4770      	bx	lr
 800124c:	40023800 	.word	0x40023800
 8001250:	017d7840 	.word	0x017d7840
 8001254:	0501bd00 	.word	0x0501bd00

08001258 <RCC_u8Enable>:
 8001258:	b480      	push	{r7}
 800125a:	b085      	sub	sp, #20
 800125c:	af00      	add	r7, sp, #0
 800125e:	4603      	mov	r3, r0
 8001260:	460a      	mov	r2, r1
 8001262:	71fb      	strb	r3, [r7, #7]
 8001264:	4613      	mov	r3, r2
 8001266:	71bb      	strb	r3, [r7, #6]
 8001268:	2300      	movs	r3, #0
 800126a:	73fb      	strb	r3, [r7, #15]
 800126c:	79bb      	ldrb	r3, [r7, #6]
 800126e:	2b1f      	cmp	r3, #31
 8001270:	d83d      	bhi.n	80012ee <RCC_u8Enable+0x96>
 8001272:	79fb      	ldrb	r3, [r7, #7]
 8001274:	3b01      	subs	r3, #1
 8001276:	2b03      	cmp	r3, #3
 8001278:	d836      	bhi.n	80012e8 <RCC_u8Enable+0x90>
 800127a:	a201      	add	r2, pc, #4	; (adr r2, 8001280 <RCC_u8Enable+0x28>)
 800127c:	f852 f023 	ldr.w	pc, [r2, r3, lsl #2]
 8001280:	08001291 	.word	0x08001291
 8001284:	080012a7 	.word	0x080012a7
 8001288:	080012bd 	.word	0x080012bd
 800128c:	080012d3 	.word	0x080012d3
 8001290:	4b1b      	ldr	r3, [pc, #108]	; (8001300 <RCC_u8Enable+0xa8>)
 8001292:	6b1b      	ldr	r3, [r3, #48]	; 0x30
 8001294:	79ba      	ldrb	r2, [r7, #6]
 8001296:	2101      	movs	r1, #1
 8001298:	fa01 f202 	lsl.w	r2, r1, r2
 800129c:	4611      	mov	r1, r2
 800129e:	4a18      	ldr	r2, [pc, #96]	; (8001300 <RCC_u8Enable+0xa8>)
 80012a0:	430b      	orrs	r3, r1
 80012a2:	6313      	str	r3, [r2, #48]	; 0x30
 80012a4:	e025      	b.n	80012f2 <RCC_u8Enable+0x9a>
 80012a6:	4b16      	ldr	r3, [pc, #88]	; (8001300 <RCC_u8Enable+0xa8>)
 80012a8:	6b5b      	ldr	r3, [r3, #52]	; 0x34
 80012aa:	79ba      	ldrb	r2, [r7, #6]
 80012ac:	2101      	movs	r1, #1
 80012ae:	fa01 f202 	lsl.w	r2, r1, r2
 80012b2:	4611      	mov	r1, r2
 80012b4:	4a12      	ldr	r2, [pc, #72]	; (8001300 <RCC_u8Enable+0xa8>)
 80012b6:	430b      	orrs	r3, r1
 80012b8:	6353      	str	r3, [r2, #52]	; 0x34
 80012ba:	e01a      	b.n	80012f2 <RCC_u8Enable+0x9a>
 80012bc:	4b10      	ldr	r3, [pc, #64]	; (8001300 <RCC_u8Enable+0xa8>)
 80012be:	6c1b      	ldr	r3, [r3, #64]	; 0x40
 80012c0:	79ba      	ldrb	r2, [r7, #6]
 80012c2:	2101      	movs	r1, #1
 80012c4:	fa01 f202 	lsl.w	r2, r1, r2
 80012c8:	4611      	mov	r1, r2
 80012ca:	4a0d      	ldr	r2, [pc, #52]	; (8001300 <RCC_u8Enable+0xa8>)
 80012cc:	430b      	orrs	r3, r1
 80012ce:	6413      	str	r3, [r2, #64]	; 0x40
 80012d0:	e00f      	b.n	80012f2 <RCC_u8Enable+0x9a>
 80012d2:	4b0b      	ldr	r3, [pc, #44]	; (8001300 <RCC_u8Enable+0xa8>)
 80012d4:	6c5b      	ldr	r3, [r3, #68]	; 0x44
 80012d6:	79ba      	ldrb	r2, [r7, #6]
 80012d8:	2101      	movs	r1, #1
 80012da:	fa01 f202 	lsl.w	r2, r1, r2
 80012de:	4611      	mov	r1, r2
 80012e0:	4a07      	ldr	r2, [pc, #28]	; (8001300 <RCC_u8Enable+0xa8>)
 80012e2:	430b      	orrs	r3, r1
 80012e4:	6453      	str	r3, [r2, #68]	; 0x44
 80012e6:	e004      	b.n	80012f2 <RCC_u8Enable+0x9a>
 80012e8:	2302      	movs	r3, #2
 80012ea:	73fb      	strb	r3, [r7, #15]
 80012ec:	e001      	b.n	80012f2 <RCC_u8Enable+0x9a>
 80012ee:	2301      	movs	r3, #1
 80012f0:	73fb      	strb	r3, [r7, #15]
 80012f2:	7bfb      	ldrb	r3, [r7, #15]
 80012f4:	4618      	mov	r0, r3
 80012f6:	3714      	adds	r7, #20
 80012f8:	46bd      	mov	sp, r7
 80012fa:	f85d 7b04 	ldr.w	r7, [sp], #4
 80012fe:	4770      	bx	lr
 8001300:	40023800 	.word	0x40023800

08001304 <SPI_u8Initialization>:
 8001304:	b480      	push	{r7}
 8001306:	b085      	sub	sp, #20
 8001308:	af00      	add	r7, sp, #0
 800130a:	6078      	str	r0, [r7, #4]
 800130c:	4608      	mov	r0, r1
 800130e:	4611      	mov	r1, r2
 8001310:	461a      	mov	r2, r3
 8001312:	4603      	mov	r3, r0
 8001314:	70fb      	strb	r3, [r7, #3]
 8001316:	460b      	mov	r3, r1
 8001318:	70bb      	strb	r3, [r7, #2]
 800131a:	4613      	mov	r3, r2
 800131c:	707b      	strb	r3, [r7, #1]
 800131e:	2300      	movs	r3, #0
 8001320:	73fb      	strb	r3, [r7, #15]
 8001322:	687b      	ldr	r3, [r7, #4]
 8001324:	681b      	ldr	r3, [r3, #0]
 8001326:	787a      	ldrb	r2, [r7, #1]
 8001328:	00d2      	lsls	r2, r2, #3
 800132a:	431a      	orrs	r2, r3
 800132c:	687b      	ldr	r3, [r7, #4]
 800132e:	601a      	str	r2, [r3, #0]
 8001330:	78bb      	ldrb	r3, [r7, #2]
 8001332:	2b00      	cmp	r3, #0
 8001334:	d106      	bne.n	8001344 <SPI_u8Initialization+0x40>
 8001336:	687b      	ldr	r3, [r7, #4]
 8001338:	681b      	ldr	r3, [r3, #0]
 800133a:	f023 0202 	bic.w	r2, r3, #2
 800133e:	687b      	ldr	r3, [r7, #4]
 8001340:	601a      	str	r2, [r3, #0]
 8001342:	e00d      	b.n	8001360 <SPI_u8Initialization+0x5c>
 8001344:	78bb      	ldrb	r3, [r7, #2]
 8001346:	2b01      	cmp	r3, #1
 8001348:	d106      	bne.n	8001358 <SPI_u8Initialization+0x54>
 800134a:	687b      	ldr	r3, [r7, #4]
 800134c:	681b      	ldr	r3, [r3, #0]
 800134e:	f043 0202 	orr.w	r2, r3, #2
 8001352:	687b      	ldr	r3, [r7, #4]
 8001354:	601a      	str	r2, [r3, #0]
 8001356:	e003      	b.n	8001360 <SPI_u8Initialization+0x5c>
 8001358:	230e      	movs	r3, #14
 800135a:	73fb      	strb	r3, [r7, #15]
 800135c:	7bfb      	ldrb	r3, [r7, #15]
 800135e:	e062      	b.n	8001426 <SPI_u8Initialization+0x122>
 8001360:	78fb      	ldrb	r3, [r7, #3]
 8001362:	2b00      	cmp	r3, #0
 8001364:	d106      	bne.n	8001374 <SPI_u8Initialization+0x70>
 8001366:	687b      	ldr	r3, [r7, #4]
 8001368:	681b      	ldr	r3, [r3, #0]
 800136a:	f023 0201 	bic.w	r2, r3, #1
 800136e:	687b      	ldr	r3, [r7, #4]
 8001370:	601a      	str	r2, [r3, #0]
 8001372:	e00d      	b.n	8001390 <SPI_u8Initialization+0x8c>
 8001374:	78fb      	ldrb	r3, [r7, #3]
 8001376:	2b01      	cmp	r3, #1
 8001378:	d106      	bne.n	8001388 <SPI_u8Initialization+0x84>
 800137a:	687b      	ldr	r3, [r7, #4]
 800137c:	681b      	ldr	r3, [r3, #0]
 800137e:	f043 0201 	orr.w	r2, r3, #1
 8001382:	687b      	ldr	r3, [r7, #4]
 8001384:	601a      	str	r2, [r3, #0]
 8001386:	e003      	b.n	8001390 <SPI_u8Initialization+0x8c>
 8001388:	230d      	movs	r3, #13
 800138a:	73fb      	strb	r3, [r7, #15]
 800138c:	7bfb      	ldrb	r3, [r7, #15]
 800138e:	e04a      	b.n	8001426 <SPI_u8Initialization+0x122>
 8001390:	7f3b      	ldrb	r3, [r7, #28]
 8001392:	2b00      	cmp	r3, #0
 8001394:	d106      	bne.n	80013a4 <SPI_u8Initialization+0xa0>
 8001396:	687b      	ldr	r3, [r7, #4]
 8001398:	681b      	ldr	r3, [r3, #0]
 800139a:	f423 6200 	bic.w	r2, r3, #2048	; 0x800
 800139e:	687b      	ldr	r3, [r7, #4]
 80013a0:	601a      	str	r2, [r3, #0]
 80013a2:	e00d      	b.n	80013c0 <SPI_u8Initialization+0xbc>
 80013a4:	7f3b      	ldrb	r3, [r7, #28]
 80013a6:	2b01      	cmp	r3, #1
 80013a8:	d106      	bne.n	80013b8 <SPI_u8Initialization+0xb4>
 80013aa:	687b      	ldr	r3, [r7, #4]
 80013ac:	681b      	ldr	r3, [r3, #0]
 80013ae:	f443 6200 	orr.w	r2, r3, #2048	; 0x800
 80013b2:	687b      	ldr	r3, [r7, #4]
 80013b4:	601a      	str	r2, [r3, #0]
 80013b6:	e003      	b.n	80013c0 <SPI_u8Initialization+0xbc>
 80013b8:	2312      	movs	r3, #18
 80013ba:	73fb      	strb	r3, [r7, #15]
 80013bc:	7bfb      	ldrb	r3, [r7, #15]
 80013be:	e032      	b.n	8001426 <SPI_u8Initialization+0x122>
 80013c0:	7e3b      	ldrb	r3, [r7, #24]
 80013c2:	2b00      	cmp	r3, #0
 80013c4:	d106      	bne.n	80013d4 <SPI_u8Initialization+0xd0>
 80013c6:	687b      	ldr	r3, [r7, #4]
 80013c8:	681b      	ldr	r3, [r3, #0]
 80013ca:	f023 0280 	bic.w	r2, r3, #128	; 0x80
 80013ce:	687b      	ldr	r3, [r7, #4]
 80013d0:	601a      	str	r2, [r3, #0]
 80013d2:	e00d      	b.n	80013f0 <SPI_u8Initialization+0xec>
 80013d4:	7e3b      	ldrb	r3, [r7, #24]
 80013d6:	2b01      	cmp	r3, #1
 80013d8:	d106      	bne.n	80013e8 <SPI_u8Initialization+0xe4>
 80013da:	687b      	ldr	r3, [r7, #4]
 80013dc:	681b      	ldr	r3, [r3, #0]
 80013de:	f043 0280 	orr.w	r2, r3, #128	; 0x80
 80013e2:	687b      	ldr	r3, [r7, #4]
 80013e4:	601a      	str	r2, [r3, #0]
 80013e6:	e003      	b.n	80013f0 <SPI_u8Initialization+0xec>
 80013e8:	2310      	movs	r3, #16
 80013ea:	73fb      	strb	r3, [r7, #15]
 80013ec:	7bfb      	ldrb	r3, [r7, #15]
 80013ee:	e01a      	b.n	8001426 <SPI_u8Initialization+0x122>
 80013f0:	f897 3020 	ldrb.w	r3, [r7, #32]
 80013f4:	2b00      	cmp	r3, #0
 80013f6:	d106      	bne.n	8001406 <SPI_u8Initialization+0x102>
 80013f8:	687b      	ldr	r3, [r7, #4]
 80013fa:	681b      	ldr	r3, [r3, #0]
 80013fc:	f023 0240 	bic.w	r2, r3, #64	; 0x40
 8001400:	687b      	ldr	r3, [r7, #4]
 8001402:	601a      	str	r2, [r3, #0]
 8001404:	e00e      	b.n	8001424 <SPI_u8Initialization+0x120>
 8001406:	f897 3020 	ldrb.w	r3, [r7, #32]
 800140a:	2b01      	cmp	r3, #1
 800140c:	d106      	bne.n	800141c <SPI_u8Initialization+0x118>
 800140e:	687b      	ldr	r3, [r7, #4]
 8001410:	681b      	ldr	r3, [r3, #0]
 8001412:	f043 0240 	orr.w	r2, r3, #64	; 0x40
 8001416:	687b      	ldr	r3, [r7, #4]
 8001418:	601a      	str	r2, [r3, #0]
 800141a:	e003      	b.n	8001424 <SPI_u8Initialization+0x120>
 800141c:	2313      	movs	r3, #19
 800141e:	73fb      	strb	r3, [r7, #15]
 8001420:	7bfb      	ldrb	r3, [r7, #15]
 8001422:	e000      	b.n	8001426 <SPI_u8Initialization+0x122>
 8001424:	7bfb      	ldrb	r3, [r7, #15]
 8001426:	4618      	mov	r0, r3
 8001428:	3714      	adds	r7, #20
 800142a:	46bd      	mov	sp, r7
 800142c:	f85d 7b04 	ldr.w	r7, [sp], #4
 8001430:	4770      	bx	lr

08001432 <SPI_u8SlaveMode>:
 8001432:	b480      	push	{r7}
 8001434:	b085      	sub	sp, #20
 8001436:	af00      	add	r7, sp, #0
 8001438:	6078      	str	r0, [r7, #4]
 800143a:	460b      	mov	r3, r1
 800143c:	70fb      	strb	r3, [r7, #3]
 800143e:	4613      	mov	r3, r2
 8001440:	70bb      	strb	r3, [r7, #2]
 8001442:	2300      	movs	r3, #0
 8001444:	73fb      	strb	r3, [r7, #15]
 8001446:	687b      	ldr	r3, [r7, #4]
 8001448:	681b      	ldr	r3, [r3, #0]
 800144a:	f023 0204 	bic.w	r2, r3, #4
 800144e:	687b      	ldr	r3, [r7, #4]
 8001450:	601a      	str	r2, [r3, #0]
 8001452:	78fb      	ldrb	r3, [r7, #3]
 8001454:	2b00      	cmp	r3, #0
 8001456:	d106      	bne.n	8001466 <SPI_u8SlaveMode+0x34>
 8001458:	687b      	ldr	r3, [r7, #4]
 800145a:	681b      	ldr	r3, [r3, #0]
 800145c:	f423 7200 	bic.w	r2, r3, #512	; 0x200
 8001460:	687b      	ldr	r3, [r7, #4]
 8001462:	601a      	str	r2, [r3, #0]
 8001464:	e00d      	b.n	8001482 <SPI_u8SlaveMode+0x50>
 8001466:	78fb      	ldrb	r3, [r7, #3]
 8001468:	2b01      	cmp	r3, #1
 800146a:	d106      	bne.n	800147a <SPI_u8SlaveMode+0x48>
 800146c:	687b      	ldr	r3, [r7, #4]
 800146e:	681b      	ldr	r3, [r3, #0]
 8001470:	f443 7200 	orr.w	r2, r3, #512	; 0x200
 8001474:	687b      	ldr	r3, [r7, #4]
 8001476:	601a      	str	r2, [r3, #0]
 8001478:	e003      	b.n	8001482 <SPI_u8SlaveMode+0x50>
 800147a:	2311      	movs	r3, #17
 800147c:	73fb      	strb	r3, [r7, #15]
 800147e:	7bfb      	ldrb	r3, [r7, #15]
 8001480:	e018      	b.n	80014b4 <SPI_u8SlaveMode+0x82>
 8001482:	78bb      	ldrb	r3, [r7, #2]
 8001484:	2b00      	cmp	r3, #0
 8001486:	d106      	bne.n	8001496 <SPI_u8SlaveMode+0x64>
 8001488:	687b      	ldr	r3, [r7, #4]
 800148a:	681b      	ldr	r3, [r3, #0]
 800148c:	f423 7280 	bic.w	r2, r3, #256	; 0x100
 8001490:	687b      	ldr	r3, [r7, #4]
 8001492:	601a      	str	r2, [r3, #0]
 8001494:	e00d      	b.n	80014b2 <SPI_u8SlaveMode+0x80>
 8001496:	78bb      	ldrb	r3, [r7, #2]
 8001498:	2b01      	cmp	r3, #1
 800149a:	d106      	bne.n	80014aa <SPI_u8SlaveMode+0x78>
 800149c:	687b      	ldr	r3, [r7, #4]
 800149e:	681b      	ldr	r3, [r3, #0]
 80014a0:	f443 7280 	orr.w	r2, r3, #256	; 0x100
 80014a4:	687b      	ldr	r3, [r7, #4]
 80014a6:	601a      	str	r2, [r3, #0]
 80014a8:	e003      	b.n	80014b2 <SPI_u8SlaveMode+0x80>
 80014aa:	2311      	movs	r3, #17
 80014ac:	73fb      	strb	r3, [r7, #15]
 80014ae:	7bfb      	ldrb	r3, [r7, #15]
 80014b0:	e000      	b.n	80014b4 <SPI_u8SlaveMode+0x82>
 80014b2:	7bfb      	ldrb	r3, [r7, #15]
 80014b4:	4618      	mov	r0, r3
 80014b6:	3714      	adds	r7, #20
 80014b8:	46bd      	mov	sp, r7
 80014ba:	f85d 7b04 	ldr.w	r7, [sp], #4
 80014be:	4770      	bx	lr

080014c0 <SPI_voidTransceive>:
 80014c0:	b480      	push	{r7}
 80014c2:	b083      	sub	sp, #12
 80014c4:	af00      	add	r7, sp, #0
 80014c6:	6078      	str	r0, [r7, #4]
 80014c8:	460b      	mov	r3, r1
 80014ca:	807b      	strh	r3, [r7, #2]
 80014cc:	887a      	ldrh	r2, [r7, #2]
 80014ce:	687b      	ldr	r3, [r7, #4]
 80014d0:	60da      	str	r2, [r3, #12]
 80014d2:	bf00      	nop
 80014d4:	687b      	ldr	r3, [r7, #4]
 80014d6:	689b      	ldr	r3, [r3, #8]
 80014d8:	085b      	lsrs	r3, r3, #1
 80014da:	f003 0301 	and.w	r3, r3, #1
 80014de:	2b00      	cmp	r3, #0
 80014e0:	d0f8      	beq.n	80014d4 <SPI_voidTransceive+0x14>
 80014e2:	bf00      	nop
 80014e4:	687b      	ldr	r3, [r7, #4]
 80014e6:	689b      	ldr	r3, [r3, #8]
 80014e8:	09db      	lsrs	r3, r3, #7
 80014ea:	f003 0301 	and.w	r3, r3, #1
 80014ee:	2b01      	cmp	r3, #1
 80014f0:	d0f8      	beq.n	80014e4 <SPI_voidTransceive+0x24>
 80014f2:	687b      	ldr	r3, [r7, #4]
 80014f4:	68db      	ldr	r3, [r3, #12]
 80014f6:	b29b      	uxth	r3, r3
 80014f8:	4618      	mov	r0, r3
 80014fa:	370c      	adds	r7, #12
 80014fc:	46bd      	mov	sp, r7
 80014fe:	f85d 7b04 	ldr.w	r7, [sp], #4
 8001502:	4770      	bx	lr

08001504 <HTIM_voidChangeAndUpdateTiming>:
 8001504:	b580      	push	{r7, lr}
 8001506:	b084      	sub	sp, #16
 8001508:	af00      	add	r7, sp, #0
 800150a:	60b9      	str	r1, [r7, #8]
 800150c:	607a      	str	r2, [r7, #4]
 800150e:	461a      	mov	r2, r3
 8001510:	4603      	mov	r3, r0
 8001512:	73fb      	strb	r3, [r7, #15]
 8001514:	4613      	mov	r3, r2
 8001516:	73bb      	strb	r3, [r7, #14]
 8001518:	7bfb      	ldrb	r3, [r7, #15]
 800151a:	4618      	mov	r0, r3
 800151c:	f000 f8a2 	bl	8001664 <MTIM_voidDisableTimer>
 8001520:	7bfb      	ldrb	r3, [r7, #15]
 8001522:	6879      	ldr	r1, [r7, #4]
 8001524:	4618      	mov	r0, r3
 8001526:	f000 f857 	bl	80015d8 <MTIM_voidSetPrescaler>
 800152a:	7bfb      	ldrb	r3, [r7, #15]
 800152c:	68b9      	ldr	r1, [r7, #8]
 800152e:	4618      	mov	r0, r3
 8001530:	f000 f868 	bl	8001604 <MTIM_voidSetAutoReloadValue>
 8001534:	7bbb      	ldrb	r3, [r7, #14]
 8001536:	2b01      	cmp	r3, #1
 8001538:	d103      	bne.n	8001542 <HTIM_voidChangeAndUpdateTiming+0x3e>
 800153a:	7bfb      	ldrb	r3, [r7, #15]
 800153c:	4618      	mov	r0, r3
 800153e:	f000 f8c5 	bl	80016cc <MTIM_voidDisableUpdateInterrupt>
 8001542:	7bfb      	ldrb	r3, [r7, #15]
 8001544:	4618      	mov	r0, r3
 8001546:	f000 f8db 	bl	8001700 <MTIM_voidUpdateGeneration>
 800154a:	7bfb      	ldrb	r3, [r7, #15]
 800154c:	4618      	mov	r0, r3
 800154e:	f000 f8f1 	bl	8001734 <MTIM_voidclearUpdateInterrupt>
 8001552:	7bbb      	ldrb	r3, [r7, #14]
 8001554:	2b01      	cmp	r3, #1
 8001556:	d103      	bne.n	8001560 <HTIM_voidChangeAndUpdateTiming+0x5c>
 8001558:	7bfb      	ldrb	r3, [r7, #15]
 800155a:	4618      	mov	r0, r3
 800155c:	f000 f89c 	bl	8001698 <MTIM_voidEnableUpdateInterrupt>
 8001560:	7bfb      	ldrb	r3, [r7, #15]
 8001562:	4618      	mov	r0, r3
 8001564:	f000 f864 	bl	8001630 <MTIM_voidEnableTimer>
 8001568:	bf00      	nop
 800156a:	3710      	adds	r7, #16
 800156c:	46bd      	mov	sp, r7
 800156e:	bd80      	pop	{r7, pc}

08001570 <HTIM_voidDelayMilliseconds>:
 8001570:	b580      	push	{r7, lr}
 8001572:	b082      	sub	sp, #8
 8001574:	af00      	add	r7, sp, #0
 8001576:	4603      	mov	r3, r0
 8001578:	6039      	str	r1, [r7, #0]
 800157a:	71fb      	strb	r3, [r7, #7]
 800157c:	79f8      	ldrb	r0, [r7, #7]
 800157e:	2300      	movs	r3, #0
 8001580:	f246 12a7 	movw	r2, #24999	; 0x61a7
 8001584:	6839      	ldr	r1, [r7, #0]
 8001586:	f7ff ffbd 	bl	8001504 <HTIM_voidChangeAndUpdateTiming>
 800158a:	e000      	b.n	800158e <HTIM_voidDelayMilliseconds+0x1e>
 800158c:	bf00      	nop
 800158e:	79fb      	ldrb	r3, [r7, #7]
 8001590:	4618      	mov	r0, r3
 8001592:	f000 f8e9 	bl	8001768 <MTIM_u8ReadUpdateInterrupt>
 8001596:	4603      	mov	r3, r0
 8001598:	2b00      	cmp	r3, #0
 800159a:	d0f7      	beq.n	800158c <HTIM_voidDelayMilliseconds+0x1c>
 800159c:	79fb      	ldrb	r3, [r7, #7]
 800159e:	4618      	mov	r0, r3
 80015a0:	f000 f860 	bl	8001664 <MTIM_voidDisableTimer>
 80015a4:	79fb      	ldrb	r3, [r7, #7]
 80015a6:	4618      	mov	r0, r3
 80015a8:	f000 f8c4 	bl	8001734 <MTIM_voidclearUpdateInterrupt>
 80015ac:	bf00      	nop
 80015ae:	3708      	adds	r7, #8
 80015b0:	46bd      	mov	sp, r7
 80015b2:	bd80      	pop	{r7, pc}

080015b4 <MTIM_u32ReadCounterValue>:
 80015b4:	b480      	push	{r7}
 80015b6:	b083      	sub	sp, #12
 80015b8:	af00      	add	r7, sp, #0
 80015ba:	4603      	mov	r3, r0
 80015bc:	71fb      	strb	r3, [r7, #7]
 80015be:	79fb      	ldrb	r3, [r7, #7]
 80015c0:	4a04      	ldr	r2, [pc, #16]	; (80015d4 <MTIM_u32ReadCounterValue+0x20>)
 80015c2:	f852 3023 	ldr.w	r3, [r2, r3, lsl #2]
 80015c6:	6a5b      	ldr	r3, [r3, #36]	; 0x24
 80015c8:	4618      	mov	r0, r3
 80015ca:	370c      	adds	r7, #12
 80015cc:	46bd      	mov	sp, r7
 80015ce:	f85d 7b04 	ldr.w	r7, [sp], #4
 80015d2:	4770      	bx	lr
 80015d4:	080040a0 	.word	0x080040a0

080015d8 <MTIM_voidSetPrescaler>:
 80015d8:	b480      	push	{r7}
 80015da:	b083      	sub	sp, #12
 80015dc:	af00      	add	r7, sp, #0
 80015de:	4603      	mov	r3, r0
 80015e0:	6039      	str	r1, [r7, #0]
 80015e2:	71fb      	strb	r3, [r7, #7]
 80015e4:	79fb      	ldrb	r3, [r7, #7]
 80015e6:	4a06      	ldr	r2, [pc, #24]	; (8001600 <MTIM_voidSetPrescaler+0x28>)
 80015e8:	f852 3023 	ldr.w	r3, [r2, r3, lsl #2]
 80015ec:	461a      	mov	r2, r3
 80015ee:	683b      	ldr	r3, [r7, #0]
 80015f0:	6293      	str	r3, [r2, #40]	; 0x28
 80015f2:	bf00      	nop
 80015f4:	370c      	adds	r7, #12
 80015f6:	46bd      	mov	sp, r7
 80015f8:	f85d 7b04 	ldr.w	r7, [sp], #4
 80015fc:	4770      	bx	lr
 80015fe:	bf00      	nop
 8001600:	080040a0 	.word	0x080040a0

08001604 <MTIM_voidSetAutoReloadValue>:
 8001604:	b480      	push	{r7}
 8001606:	b083      	sub	sp, #12
 8001608:	af00      	add	r7, sp, #0
 800160a:	4603      	mov	r3, r0
 800160c:	6039      	str	r1, [r7, #0]
 800160e:	71fb      	strb	r3, [r7, #7]
 8001610:	79fb      	ldrb	r3, [r7, #7]
 8001612:	4a06      	ldr	r2, [pc, #24]	; (800162c <MTIM_voidSetAutoReloadValue+0x28>)
 8001614:	f852 3023 	ldr.w	r3, [r2, r3, lsl #2]
 8001618:	461a      	mov	r2, r3
 800161a:	683b      	ldr	r3, [r7, #0]
 800161c:	62d3      	str	r3, [r2, #44]	; 0x2c
 800161e:	bf00      	nop
 8001620:	370c      	adds	r7, #12
 8001622:	46bd      	mov	sp, r7
 8001624:	f85d 7b04 	ldr.w	r7, [sp], #4
 8001628:	4770      	bx	lr
 800162a:	bf00      	nop
 800162c:	080040a0 	.word	0x080040a0

08001630 <MTIM_voidEnableTimer>:
 8001630:	b480      	push	{r7}
 8001632:	b083      	sub	sp, #12
 8001634:	af00      	add	r7, sp, #0
 8001636:	4603      	mov	r3, r0
 8001638:	71fb      	strb	r3, [r7, #7]
 800163a:	79fb      	ldrb	r3, [r7, #7]
 800163c:	4a08      	ldr	r2, [pc, #32]	; (8001660 <MTIM_voidEnableTimer+0x30>)
 800163e:	f852 3023 	ldr.w	r3, [r2, r3, lsl #2]
 8001642:	681b      	ldr	r3, [r3, #0]
 8001644:	79fa      	ldrb	r2, [r7, #7]
 8001646:	4906      	ldr	r1, [pc, #24]	; (8001660 <MTIM_voidEnableTimer+0x30>)
 8001648:	f851 2022 	ldr.w	r2, [r1, r2, lsl #2]
 800164c:	f043 0301 	orr.w	r3, r3, #1
 8001650:	6013      	str	r3, [r2, #0]
 8001652:	bf00      	nop
 8001654:	370c      	adds	r7, #12
 8001656:	46bd      	mov	sp, r7
 8001658:	f85d 7b04 	ldr.w	r7, [sp], #4
 800165c:	4770      	bx	lr
 800165e:	bf00      	nop
 8001660:	080040a0 	.word	0x080040a0

08001664 <MTIM_voidDisableTimer>:
 8001664:	b480      	push	{r7}
 8001666:	b083      	sub	sp, #12
 8001668:	af00      	add	r7, sp, #0
 800166a:	4603      	mov	r3, r0
 800166c:	71fb      	strb	r3, [r7, #7]
 800166e:	79fb      	ldrb	r3, [r7, #7]
 8001670:	4a08      	ldr	r2, [pc, #32]	; (8001694 <MTIM_voidDisableTimer+0x30>)
 8001672:	f852 3023 	ldr.w	r3, [r2, r3, lsl #2]
 8001676:	681b      	ldr	r3, [r3, #0]
 8001678:	79fa      	ldrb	r2, [r7, #7]
 800167a:	4906      	ldr	r1, [pc, #24]	; (8001694 <MTIM_voidDisableTimer+0x30>)
 800167c:	f851 2022 	ldr.w	r2, [r1, r2, lsl #2]
 8001680:	f023 0301 	bic.w	r3, r3, #1
 8001684:	6013      	str	r3, [r2, #0]
 8001686:	bf00      	nop
 8001688:	370c      	adds	r7, #12
 800168a:	46bd      	mov	sp, r7
 800168c:	f85d 7b04 	ldr.w	r7, [sp], #4
 8001690:	4770      	bx	lr
 8001692:	bf00      	nop
 8001694:	080040a0 	.word	0x080040a0

08001698 <MTIM_voidEnableUpdateInterrupt>:
 8001698:	b480      	push	{r7}
 800169a:	b083      	sub	sp, #12
 800169c:	af00      	add	r7, sp, #0
 800169e:	4603      	mov	r3, r0
 80016a0:	71fb      	strb	r3, [r7, #7]
 80016a2:	79fb      	ldrb	r3, [r7, #7]
 80016a4:	4a08      	ldr	r2, [pc, #32]	; (80016c8 <MTIM_voidEnableUpdateInterrupt+0x30>)
 80016a6:	f852 3023 	ldr.w	r3, [r2, r3, lsl #2]
 80016aa:	68db      	ldr	r3, [r3, #12]
 80016ac:	79fa      	ldrb	r2, [r7, #7]
 80016ae:	4906      	ldr	r1, [pc, #24]	; (80016c8 <MTIM_voidEnableUpdateInterrupt+0x30>)
 80016b0:	f851 2022 	ldr.w	r2, [r1, r2, lsl #2]
 80016b4:	f043 0301 	orr.w	r3, r3, #1
 80016b8:	60d3      	str	r3, [r2, #12]
 80016ba:	bf00      	nop
 80016bc:	370c      	adds	r7, #12
 80016be:	46bd      	mov	sp, r7
 80016c0:	f85d 7b04 	ldr.w	r7, [sp], #4
 80016c4:	4770      	bx	lr
 80016c6:	bf00      	nop
 80016c8:	080040a0 	.word	0x080040a0

080016cc <MTIM_voidDisableUpdateInterrupt>:
 80016cc:	b480      	push	{r7}
 80016ce:	b083      	sub	sp, #12
 80016d0:	af00      	add	r7, sp, #0
 80016d2:	4603      	mov	r3, r0
 80016d4:	71fb      	strb	r3, [r7, #7]
 80016d6:	79fb      	ldrb	r3, [r7, #7]
 80016d8:	4a08      	ldr	r2, [pc, #32]	; (80016fc <MTIM_voidDisableUpdateInterrupt+0x30>)
 80016da:	f852 3023 	ldr.w	r3, [r2, r3, lsl #2]
 80016de:	68db      	ldr	r3, [r3, #12]
 80016e0:	79fa      	ldrb	r2, [r7, #7]
 80016e2:	4906      	ldr	r1, [pc, #24]	; (80016fc <MTIM_voidDisableUpdateInterrupt+0x30>)
 80016e4:	f851 2022 	ldr.w	r2, [r1, r2, lsl #2]
 80016e8:	f023 0301 	bic.w	r3, r3, #1
 80016ec:	60d3      	str	r3, [r2, #12]
 80016ee:	bf00      	nop
 80016f0:	370c      	adds	r7, #12
 80016f2:	46bd      	mov	sp, r7
 80016f4:	f85d 7b04 	ldr.w	r7, [sp], #4
 80016f8:	4770      	bx	lr
 80016fa:	bf00      	nop
 80016fc:	080040a0 	.word	0x080040a0

08001700 <MTIM_voidUpdateGeneration>:
 8001700:	b480      	push	{r7}
 8001702:	b083      	sub	sp, #12
 8001704:	af00      	add	r7, sp, #0
 8001706:	4603      	mov	r3, r0
 8001708:	71fb      	strb	r3, [r7, #7]
 800170a:	79fb      	ldrb	r3, [r7, #7]
 800170c:	4a08      	ldr	r2, [pc, #32]	; (8001730 <MTIM_voidUpdateGeneration+0x30>)
 800170e:	f852 3023 	ldr.w	r3, [r2, r3, lsl #2]
 8001712:	695b      	ldr	r3, [r3, #20]
 8001714:	79fa      	ldrb	r2, [r7, #7]
 8001716:	4906      	ldr	r1, [pc, #24]	; (8001730 <MTIM_voidUpdateGeneration+0x30>)
 8001718:	f851 2022 	ldr.w	r2, [r1, r2, lsl #2]
 800171c:	f043 0301 	orr.w	r3, r3, #1
 8001720:	6153      	str	r3, [r2, #20]
 8001722:	bf00      	nop
 8001724:	370c      	adds	r7, #12
 8001726:	46bd      	mov	sp, r7
 8001728:	f85d 7b04 	ldr.w	r7, [sp], #4
 800172c:	4770      	bx	lr
 800172e:	bf00      	nop
 8001730:	080040a0 	.word	0x080040a0

08001734 <MTIM_voidclearUpdateInterrupt>:
 8001734:	b480      	push	{r7}
 8001736:	b083      	sub	sp, #12
 8001738:	af00      	add	r7, sp, #0
 800173a:	4603      	mov	r3, r0
 800173c:	71fb      	strb	r3, [r7, #7]
 800173e:	79fb      	ldrb	r3, [r7, #7]
 8001740:	4a08      	ldr	r2, [pc, #32]	; (8001764 <MTIM_voidclearUpdateInterrupt+0x30>)
 8001742:	f852 3023 	ldr.w	r3, [r2, r3, lsl #2]
 8001746:	691b      	ldr	r3, [r3, #16]
 8001748:	79fa      	ldrb	r2, [r7, #7]
 800174a:	4906      	ldr	r1, [pc, #24]	; (8001764 <MTIM_voidclearUpdateInterrupt+0x30>)
 800174c:	f851 2022 	ldr.w	r2, [r1, r2, lsl #2]
 8001750:	f023 0301 	bic.w	r3, r3, #1
 8001754:	6113      	str	r3, [r2, #16]
 8001756:	bf00      	nop
 8001758:	370c      	adds	r7, #12
 800175a:	46bd      	mov	sp, r7
 800175c:	f85d 7b04 	ldr.w	r7, [sp], #4
 8001760:	4770      	bx	lr
 8001762:	bf00      	nop
 8001764:	080040a0 	.word	0x080040a0

08001768 <MTIM_u8ReadUpdateInterrupt>:
 8001768:	b480      	push	{r7}
 800176a:	b083      	sub	sp, #12
 800176c:	af00      	add	r7, sp, #0
 800176e:	4603      	mov	r3, r0
 8001770:	71fb      	strb	r3, [r7, #7]
 8001772:	79fb      	ldrb	r3, [r7, #7]
 8001774:	4a06      	ldr	r2, [pc, #24]	; (8001790 <MTIM_u8ReadUpdateInterrupt+0x28>)
 8001776:	f852 3023 	ldr.w	r3, [r2, r3, lsl #2]
 800177a:	691b      	ldr	r3, [r3, #16]
 800177c:	b2db      	uxtb	r3, r3
 800177e:	f003 0301 	and.w	r3, r3, #1
 8001782:	b2db      	uxtb	r3, r3
 8001784:	4618      	mov	r0, r3
 8001786:	370c      	adds	r7, #12
 8001788:	46bd      	mov	sp, r7
 800178a:	f85d 7b04 	ldr.w	r7, [sp], #4
 800178e:	4770      	bx	lr
 8001790:	080040a0 	.word	0x080040a0

08001794 <pvPortMalloc>:
 8001794:	b580      	push	{r7, lr}
 8001796:	b08a      	sub	sp, #40	; 0x28
 8001798:	af00      	add	r7, sp, #0
 800179a:	6078      	str	r0, [r7, #4]
 800179c:	2300      	movs	r3, #0
 800179e:	61fb      	str	r3, [r7, #28]
 80017a0:	f001 fc10 	bl	8002fc4 <vTaskSuspendAll>
 80017a4:	4b65      	ldr	r3, [pc, #404]	; (800193c <pvPortMalloc+0x1a8>)
 80017a6:	681b      	ldr	r3, [r3, #0]
 80017a8:	2b00      	cmp	r3, #0
 80017aa:	d101      	bne.n	80017b0 <pvPortMalloc+0x1c>
 80017ac:	f000 f934 	bl	8001a18 <prvHeapInit>
 80017b0:	4b63      	ldr	r3, [pc, #396]	; (8001940 <pvPortMalloc+0x1ac>)
 80017b2:	681a      	ldr	r2, [r3, #0]
 80017b4:	687b      	ldr	r3, [r7, #4]
 80017b6:	4013      	ands	r3, r2
 80017b8:	2b00      	cmp	r3, #0
 80017ba:	f040 80a7 	bne.w	800190c <pvPortMalloc+0x178>
 80017be:	687b      	ldr	r3, [r7, #4]
 80017c0:	2b00      	cmp	r3, #0
 80017c2:	d02d      	beq.n	8001820 <pvPortMalloc+0x8c>
 80017c4:	2208      	movs	r2, #8
 80017c6:	687b      	ldr	r3, [r7, #4]
 80017c8:	4413      	add	r3, r2
 80017ca:	687a      	ldr	r2, [r7, #4]
 80017cc:	429a      	cmp	r2, r3
 80017ce:	d227      	bcs.n	8001820 <pvPortMalloc+0x8c>
 80017d0:	2208      	movs	r2, #8
 80017d2:	687b      	ldr	r3, [r7, #4]
 80017d4:	4413      	add	r3, r2
 80017d6:	607b      	str	r3, [r7, #4]
 80017d8:	687b      	ldr	r3, [r7, #4]
 80017da:	f003 0307 	and.w	r3, r3, #7
 80017de:	2b00      	cmp	r3, #0
 80017e0:	d021      	beq.n	8001826 <pvPortMalloc+0x92>
 80017e2:	687b      	ldr	r3, [r7, #4]
 80017e4:	f023 0307 	bic.w	r3, r3, #7
 80017e8:	3308      	adds	r3, #8
 80017ea:	687a      	ldr	r2, [r7, #4]
 80017ec:	429a      	cmp	r2, r3
 80017ee:	d214      	bcs.n	800181a <pvPortMalloc+0x86>
 80017f0:	687b      	ldr	r3, [r7, #4]
 80017f2:	f023 0307 	bic.w	r3, r3, #7
 80017f6:	3308      	adds	r3, #8
 80017f8:	607b      	str	r3, [r7, #4]
 80017fa:	687b      	ldr	r3, [r7, #4]
 80017fc:	f003 0307 	and.w	r3, r3, #7
 8001800:	2b00      	cmp	r3, #0
 8001802:	d010      	beq.n	8001826 <pvPortMalloc+0x92>
 8001804:	f04f 0350 	mov.w	r3, #80	; 0x50
 8001808:	f383 8811 	msr	BASEPRI, r3
 800180c:	f3bf 8f6f 	isb	sy
 8001810:	f3bf 8f4f 	dsb	sy
 8001814:	617b      	str	r3, [r7, #20]
 8001816:	bf00      	nop
 8001818:	e7fe      	b.n	8001818 <pvPortMalloc+0x84>
 800181a:	2300      	movs	r3, #0
 800181c:	607b      	str	r3, [r7, #4]
 800181e:	e002      	b.n	8001826 <pvPortMalloc+0x92>
 8001820:	2300      	movs	r3, #0
 8001822:	607b      	str	r3, [r7, #4]
 8001824:	e000      	b.n	8001828 <pvPortMalloc+0x94>
 8001826:	bf00      	nop
 8001828:	687b      	ldr	r3, [r7, #4]
 800182a:	2b00      	cmp	r3, #0
 800182c:	d06e      	beq.n	800190c <pvPortMalloc+0x178>
 800182e:	4b45      	ldr	r3, [pc, #276]	; (8001944 <pvPortMalloc+0x1b0>)
 8001830:	681b      	ldr	r3, [r3, #0]
 8001832:	687a      	ldr	r2, [r7, #4]
 8001834:	429a      	cmp	r2, r3
 8001836:	d869      	bhi.n	800190c <pvPortMalloc+0x178>
 8001838:	4b43      	ldr	r3, [pc, #268]	; (8001948 <pvPortMalloc+0x1b4>)
 800183a:	623b      	str	r3, [r7, #32]
 800183c:	4b42      	ldr	r3, [pc, #264]	; (8001948 <pvPortMalloc+0x1b4>)
 800183e:	681b      	ldr	r3, [r3, #0]
 8001840:	627b      	str	r3, [r7, #36]	; 0x24
 8001842:	e004      	b.n	800184e <pvPortMalloc+0xba>
 8001844:	6a7b      	ldr	r3, [r7, #36]	; 0x24
 8001846:	623b      	str	r3, [r7, #32]
 8001848:	6a7b      	ldr	r3, [r7, #36]	; 0x24
 800184a:	681b      	ldr	r3, [r3, #0]
 800184c:	627b      	str	r3, [r7, #36]	; 0x24
 800184e:	6a7b      	ldr	r3, [r7, #36]	; 0x24
 8001850:	685b      	ldr	r3, [r3, #4]
 8001852:	687a      	ldr	r2, [r7, #4]
 8001854:	429a      	cmp	r2, r3
 8001856:	d903      	bls.n	8001860 <pvPortMalloc+0xcc>
 8001858:	6a7b      	ldr	r3, [r7, #36]	; 0x24
 800185a:	681b      	ldr	r3, [r3, #0]
 800185c:	2b00      	cmp	r3, #0
 800185e:	d1f1      	bne.n	8001844 <pvPortMalloc+0xb0>
 8001860:	4b36      	ldr	r3, [pc, #216]	; (800193c <pvPortMalloc+0x1a8>)
 8001862:	681b      	ldr	r3, [r3, #0]
 8001864:	6a7a      	ldr	r2, [r7, #36]	; 0x24
 8001866:	429a      	cmp	r2, r3
 8001868:	d050      	beq.n	800190c <pvPortMalloc+0x178>
 800186a:	6a3b      	ldr	r3, [r7, #32]
 800186c:	681b      	ldr	r3, [r3, #0]
 800186e:	2208      	movs	r2, #8
 8001870:	4413      	add	r3, r2
 8001872:	61fb      	str	r3, [r7, #28]
 8001874:	6a7b      	ldr	r3, [r7, #36]	; 0x24
 8001876:	681a      	ldr	r2, [r3, #0]
 8001878:	6a3b      	ldr	r3, [r7, #32]
 800187a:	601a      	str	r2, [r3, #0]
 800187c:	6a7b      	ldr	r3, [r7, #36]	; 0x24
 800187e:	685a      	ldr	r2, [r3, #4]
 8001880:	687b      	ldr	r3, [r7, #4]
 8001882:	1ad2      	subs	r2, r2, r3
 8001884:	2308      	movs	r3, #8
 8001886:	005b      	lsls	r3, r3, #1
 8001888:	429a      	cmp	r2, r3
 800188a:	d91f      	bls.n	80018cc <pvPortMalloc+0x138>
 800188c:	6a7a      	ldr	r2, [r7, #36]	; 0x24
 800188e:	687b      	ldr	r3, [r7, #4]
 8001890:	4413      	add	r3, r2
 8001892:	61bb      	str	r3, [r7, #24]
 8001894:	69bb      	ldr	r3, [r7, #24]
 8001896:	f003 0307 	and.w	r3, r3, #7
 800189a:	2b00      	cmp	r3, #0
 800189c:	d00a      	beq.n	80018b4 <pvPortMalloc+0x120>
 800189e:	f04f 0350 	mov.w	r3, #80	; 0x50
 80018a2:	f383 8811 	msr	BASEPRI, r3
 80018a6:	f3bf 8f6f 	isb	sy
 80018aa:	f3bf 8f4f 	dsb	sy
 80018ae:	613b      	str	r3, [r7, #16]
 80018b0:	bf00      	nop
 80018b2:	e7fe      	b.n	80018b2 <pvPortMalloc+0x11e>
 80018b4:	6a7b      	ldr	r3, [r7, #36]	; 0x24
 80018b6:	685a      	ldr	r2, [r3, #4]
 80018b8:	687b      	ldr	r3, [r7, #4]
 80018ba:	1ad2      	subs	r2, r2, r3
 80018bc:	69bb      	ldr	r3, [r7, #24]
 80018be:	605a      	str	r2, [r3, #4]
 80018c0:	6a7b      	ldr	r3, [r7, #36]	; 0x24
 80018c2:	687a      	ldr	r2, [r7, #4]
 80018c4:	605a      	str	r2, [r3, #4]
 80018c6:	69b8      	ldr	r0, [r7, #24]
 80018c8:	f000 f908 	bl	8001adc <prvInsertBlockIntoFreeList>
 80018cc:	4b1d      	ldr	r3, [pc, #116]	; (8001944 <pvPortMalloc+0x1b0>)
 80018ce:	681a      	ldr	r2, [r3, #0]
 80018d0:	6a7b      	ldr	r3, [r7, #36]	; 0x24
 80018d2:	685b      	ldr	r3, [r3, #4]
 80018d4:	1ad3      	subs	r3, r2, r3
 80018d6:	4a1b      	ldr	r2, [pc, #108]	; (8001944 <pvPortMalloc+0x1b0>)
 80018d8:	6013      	str	r3, [r2, #0]
 80018da:	4b1a      	ldr	r3, [pc, #104]	; (8001944 <pvPortMalloc+0x1b0>)
 80018dc:	681a      	ldr	r2, [r3, #0]
 80018de:	4b1b      	ldr	r3, [pc, #108]	; (800194c <pvPortMalloc+0x1b8>)
 80018e0:	681b      	ldr	r3, [r3, #0]
 80018e2:	429a      	cmp	r2, r3
 80018e4:	d203      	bcs.n	80018ee <pvPortMalloc+0x15a>
 80018e6:	4b17      	ldr	r3, [pc, #92]	; (8001944 <pvPortMalloc+0x1b0>)
 80018e8:	681b      	ldr	r3, [r3, #0]
 80018ea:	4a18      	ldr	r2, [pc, #96]	; (800194c <pvPortMalloc+0x1b8>)
 80018ec:	6013      	str	r3, [r2, #0]
 80018ee:	6a7b      	ldr	r3, [r7, #36]	; 0x24
 80018f0:	685a      	ldr	r2, [r3, #4]
 80018f2:	4b13      	ldr	r3, [pc, #76]	; (8001940 <pvPortMalloc+0x1ac>)
 80018f4:	681b      	ldr	r3, [r3, #0]
 80018f6:	431a      	orrs	r2, r3
 80018f8:	6a7b      	ldr	r3, [r7, #36]	; 0x24
 80018fa:	605a      	str	r2, [r3, #4]
 80018fc:	6a7b      	ldr	r3, [r7, #36]	; 0x24
 80018fe:	2200      	movs	r2, #0
 8001900:	601a      	str	r2, [r3, #0]
 8001902:	4b13      	ldr	r3, [pc, #76]	; (8001950 <pvPortMalloc+0x1bc>)
 8001904:	681b      	ldr	r3, [r3, #0]
 8001906:	3301      	adds	r3, #1
 8001908:	4a11      	ldr	r2, [pc, #68]	; (8001950 <pvPortMalloc+0x1bc>)
 800190a:	6013      	str	r3, [r2, #0]
 800190c:	f001 fb68 	bl	8002fe0 <xTaskResumeAll>
 8001910:	69fb      	ldr	r3, [r7, #28]
 8001912:	f003 0307 	and.w	r3, r3, #7
 8001916:	2b00      	cmp	r3, #0
 8001918:	d00a      	beq.n	8001930 <pvPortMalloc+0x19c>
 800191a:	f04f 0350 	mov.w	r3, #80	; 0x50
 800191e:	f383 8811 	msr	BASEPRI, r3
 8001922:	f3bf 8f6f 	isb	sy
 8001926:	f3bf 8f4f 	dsb	sy
 800192a:	60fb      	str	r3, [r7, #12]
 800192c:	bf00      	nop
 800192e:	e7fe      	b.n	800192e <pvPortMalloc+0x19a>
 8001930:	69fb      	ldr	r3, [r7, #28]
 8001932:	4618      	mov	r0, r3
 8001934:	3728      	adds	r7, #40	; 0x28
 8001936:	46bd      	mov	sp, r7
 8001938:	bd80      	pop	{r7, pc}
 800193a:	bf00      	nop
 800193c:	2000c86c 	.word	0x2000c86c
 8001940:	2000c880 	.word	0x2000c880
 8001944:	2000c870 	.word	0x2000c870
 8001948:	2000c864 	.word	0x2000c864
 800194c:	2000c874 	.word	0x2000c874
 8001950:	2000c878 	.word	0x2000c878

08001954 <vPortFree>:
 8001954:	b580      	push	{r7, lr}
 8001956:	b086      	sub	sp, #24
 8001958:	af00      	add	r7, sp, #0
 800195a:	6078      	str	r0, [r7, #4]
 800195c:	687b      	ldr	r3, [r7, #4]
 800195e:	617b      	str	r3, [r7, #20]
 8001960:	687b      	ldr	r3, [r7, #4]
 8001962:	2b00      	cmp	r3, #0
 8001964:	d04d      	beq.n	8001a02 <vPortFree+0xae>
 8001966:	2308      	movs	r3, #8
 8001968:	425b      	negs	r3, r3
 800196a:	697a      	ldr	r2, [r7, #20]
 800196c:	4413      	add	r3, r2
 800196e:	617b      	str	r3, [r7, #20]
 8001970:	697b      	ldr	r3, [r7, #20]
 8001972:	613b      	str	r3, [r7, #16]
 8001974:	693b      	ldr	r3, [r7, #16]
 8001976:	685a      	ldr	r2, [r3, #4]
 8001978:	4b24      	ldr	r3, [pc, #144]	; (8001a0c <vPortFree+0xb8>)
 800197a:	681b      	ldr	r3, [r3, #0]
 800197c:	4013      	ands	r3, r2
 800197e:	2b00      	cmp	r3, #0
 8001980:	d10a      	bne.n	8001998 <vPortFree+0x44>
 8001982:	f04f 0350 	mov.w	r3, #80	; 0x50
 8001986:	f383 8811 	msr	BASEPRI, r3
 800198a:	f3bf 8f6f 	isb	sy
 800198e:	f3bf 8f4f 	dsb	sy
 8001992:	60fb      	str	r3, [r7, #12]
 8001994:	bf00      	nop
 8001996:	e7fe      	b.n	8001996 <vPortFree+0x42>
 8001998:	693b      	ldr	r3, [r7, #16]
 800199a:	681b      	ldr	r3, [r3, #0]
 800199c:	2b00      	cmp	r3, #0
 800199e:	d00a      	beq.n	80019b6 <vPortFree+0x62>
 80019a0:	f04f 0350 	mov.w	r3, #80	; 0x50
 80019a4:	f383 8811 	msr	BASEPRI, r3
 80019a8:	f3bf 8f6f 	isb	sy
 80019ac:	f3bf 8f4f 	dsb	sy
 80019b0:	60bb      	str	r3, [r7, #8]
 80019b2:	bf00      	nop
 80019b4:	e7fe      	b.n	80019b4 <vPortFree+0x60>
 80019b6:	693b      	ldr	r3, [r7, #16]
 80019b8:	685a      	ldr	r2, [r3, #4]
 80019ba:	4b14      	ldr	r3, [pc, #80]	; (8001a0c <vPortFree+0xb8>)
 80019bc:	681b      	ldr	r3, [r3, #0]
 80019be:	4013      	ands	r3, r2
 80019c0:	2b00      	cmp	r3, #0
 80019c2:	d01e      	beq.n	8001a02 <vPortFree+0xae>
 80019c4:	693b      	ldr	r3, [r7, #16]
 80019c6:	681b      	ldr	r3, [r3, #0]
 80019c8:	2b00      	cmp	r3, #0
 80019ca:	d11a      	bne.n	8001a02 <vPortFree+0xae>
 80019cc:	693b      	ldr	r3, [r7, #16]
 80019ce:	685a      	ldr	r2, [r3, #4]
 80019d0:	4b0e      	ldr	r3, [pc, #56]	; (8001a0c <vPortFree+0xb8>)
 80019d2:	681b      	ldr	r3, [r3, #0]
 80019d4:	43db      	mvns	r3, r3
 80019d6:	401a      	ands	r2, r3
 80019d8:	693b      	ldr	r3, [r7, #16]
 80019da:	605a      	str	r2, [r3, #4]
 80019dc:	f001 faf2 	bl	8002fc4 <vTaskSuspendAll>
 80019e0:	693b      	ldr	r3, [r7, #16]
 80019e2:	685a      	ldr	r2, [r3, #4]
 80019e4:	4b0a      	ldr	r3, [pc, #40]	; (8001a10 <vPortFree+0xbc>)
 80019e6:	681b      	ldr	r3, [r3, #0]
 80019e8:	4413      	add	r3, r2
 80019ea:	4a09      	ldr	r2, [pc, #36]	; (8001a10 <vPortFree+0xbc>)
 80019ec:	6013      	str	r3, [r2, #0]
 80019ee:	6938      	ldr	r0, [r7, #16]
 80019f0:	f000 f874 	bl	8001adc <prvInsertBlockIntoFreeList>
 80019f4:	4b07      	ldr	r3, [pc, #28]	; (8001a14 <vPortFree+0xc0>)
 80019f6:	681b      	ldr	r3, [r3, #0]
 80019f8:	3301      	adds	r3, #1
 80019fa:	4a06      	ldr	r2, [pc, #24]	; (8001a14 <vPortFree+0xc0>)
 80019fc:	6013      	str	r3, [r2, #0]
 80019fe:	f001 faef 	bl	8002fe0 <xTaskResumeAll>
 8001a02:	bf00      	nop
 8001a04:	3718      	adds	r7, #24
 8001a06:	46bd      	mov	sp, r7
 8001a08:	bd80      	pop	{r7, pc}
 8001a0a:	bf00      	nop
 8001a0c:	2000c880 	.word	0x2000c880
 8001a10:	2000c870 	.word	0x2000c870
 8001a14:	2000c87c 	.word	0x2000c87c

08001a18 <prvHeapInit>:
 8001a18:	b480      	push	{r7}
 8001a1a:	b085      	sub	sp, #20
 8001a1c:	af00      	add	r7, sp, #0
 8001a1e:	f44f 4348 	mov.w	r3, #51200	; 0xc800
 8001a22:	60bb      	str	r3, [r7, #8]
 8001a24:	4b27      	ldr	r3, [pc, #156]	; (8001ac4 <prvHeapInit+0xac>)
 8001a26:	60fb      	str	r3, [r7, #12]
 8001a28:	68fb      	ldr	r3, [r7, #12]
 8001a2a:	f003 0307 	and.w	r3, r3, #7
 8001a2e:	2b00      	cmp	r3, #0
 8001a30:	d00c      	beq.n	8001a4c <prvHeapInit+0x34>
 8001a32:	68fb      	ldr	r3, [r7, #12]
 8001a34:	3307      	adds	r3, #7
 8001a36:	60fb      	str	r3, [r7, #12]
 8001a38:	68fb      	ldr	r3, [r7, #12]
 8001a3a:	f023 0307 	bic.w	r3, r3, #7
 8001a3e:	60fb      	str	r3, [r7, #12]
 8001a40:	68ba      	ldr	r2, [r7, #8]
 8001a42:	68fb      	ldr	r3, [r7, #12]
 8001a44:	1ad3      	subs	r3, r2, r3
 8001a46:	4a1f      	ldr	r2, [pc, #124]	; (8001ac4 <prvHeapInit+0xac>)
 8001a48:	4413      	add	r3, r2
 8001a4a:	60bb      	str	r3, [r7, #8]
 8001a4c:	68fb      	ldr	r3, [r7, #12]
 8001a4e:	607b      	str	r3, [r7, #4]
 8001a50:	4a1d      	ldr	r2, [pc, #116]	; (8001ac8 <prvHeapInit+0xb0>)
 8001a52:	687b      	ldr	r3, [r7, #4]
 8001a54:	6013      	str	r3, [r2, #0]
 8001a56:	4b1c      	ldr	r3, [pc, #112]	; (8001ac8 <prvHeapInit+0xb0>)
 8001a58:	2200      	movs	r2, #0
 8001a5a:	605a      	str	r2, [r3, #4]
 8001a5c:	687b      	ldr	r3, [r7, #4]
 8001a5e:	68ba      	ldr	r2, [r7, #8]
 8001a60:	4413      	add	r3, r2
 8001a62:	60fb      	str	r3, [r7, #12]
 8001a64:	2208      	movs	r2, #8
 8001a66:	68fb      	ldr	r3, [r7, #12]
 8001a68:	1a9b      	subs	r3, r3, r2
 8001a6a:	60fb      	str	r3, [r7, #12]
 8001a6c:	68fb      	ldr	r3, [r7, #12]
 8001a6e:	f023 0307 	bic.w	r3, r3, #7
 8001a72:	60fb      	str	r3, [r7, #12]
 8001a74:	68fb      	ldr	r3, [r7, #12]
 8001a76:	4a15      	ldr	r2, [pc, #84]	; (8001acc <prvHeapInit+0xb4>)
 8001a78:	6013      	str	r3, [r2, #0]
 8001a7a:	4b14      	ldr	r3, [pc, #80]	; (8001acc <prvHeapInit+0xb4>)
 8001a7c:	681b      	ldr	r3, [r3, #0]
 8001a7e:	2200      	movs	r2, #0
 8001a80:	605a      	str	r2, [r3, #4]
 8001a82:	4b12      	ldr	r3, [pc, #72]	; (8001acc <prvHeapInit+0xb4>)
 8001a84:	681b      	ldr	r3, [r3, #0]
 8001a86:	2200      	movs	r2, #0
 8001a88:	601a      	str	r2, [r3, #0]
 8001a8a:	687b      	ldr	r3, [r7, #4]
 8001a8c:	603b      	str	r3, [r7, #0]
 8001a8e:	683b      	ldr	r3, [r7, #0]
 8001a90:	68fa      	ldr	r2, [r7, #12]
 8001a92:	1ad2      	subs	r2, r2, r3
 8001a94:	683b      	ldr	r3, [r7, #0]
 8001a96:	605a      	str	r2, [r3, #4]
 8001a98:	4b0c      	ldr	r3, [pc, #48]	; (8001acc <prvHeapInit+0xb4>)
 8001a9a:	681a      	ldr	r2, [r3, #0]
 8001a9c:	683b      	ldr	r3, [r7, #0]
 8001a9e:	601a      	str	r2, [r3, #0]
 8001aa0:	683b      	ldr	r3, [r7, #0]
 8001aa2:	685b      	ldr	r3, [r3, #4]
 8001aa4:	4a0a      	ldr	r2, [pc, #40]	; (8001ad0 <prvHeapInit+0xb8>)
 8001aa6:	6013      	str	r3, [r2, #0]
 8001aa8:	683b      	ldr	r3, [r7, #0]
 8001aaa:	685b      	ldr	r3, [r3, #4]
 8001aac:	4a09      	ldr	r2, [pc, #36]	; (8001ad4 <prvHeapInit+0xbc>)
 8001aae:	6013      	str	r3, [r2, #0]
 8001ab0:	4b09      	ldr	r3, [pc, #36]	; (8001ad8 <prvHeapInit+0xc0>)
 8001ab2:	f04f 4200 	mov.w	r2, #2147483648	; 0x80000000
 8001ab6:	601a      	str	r2, [r3, #0]
 8001ab8:	bf00      	nop
 8001aba:	3714      	adds	r7, #20
 8001abc:	46bd      	mov	sp, r7
 8001abe:	f85d 7b04 	ldr.w	r7, [sp], #4
 8001ac2:	4770      	bx	lr
 8001ac4:	20000064 	.word	0x20000064
 8001ac8:	2000c864 	.word	0x2000c864
 8001acc:	2000c86c 	.word	0x2000c86c
 8001ad0:	2000c874 	.word	0x2000c874
 8001ad4:	2000c870 	.word	0x2000c870
 8001ad8:	2000c880 	.word	0x2000c880

08001adc <prvInsertBlockIntoFreeList>:
 8001adc:	b480      	push	{r7}
 8001ade:	b085      	sub	sp, #20
 8001ae0:	af00      	add	r7, sp, #0
 8001ae2:	6078      	str	r0, [r7, #4]
 8001ae4:	4b28      	ldr	r3, [pc, #160]	; (8001b88 <prvInsertBlockIntoFreeList+0xac>)
 8001ae6:	60fb      	str	r3, [r7, #12]
 8001ae8:	e002      	b.n	8001af0 <prvInsertBlockIntoFreeList+0x14>
 8001aea:	68fb      	ldr	r3, [r7, #12]
 8001aec:	681b      	ldr	r3, [r3, #0]
 8001aee:	60fb      	str	r3, [r7, #12]
 8001af0:	68fb      	ldr	r3, [r7, #12]
 8001af2:	681b      	ldr	r3, [r3, #0]
 8001af4:	687a      	ldr	r2, [r7, #4]
 8001af6:	429a      	cmp	r2, r3
 8001af8:	d8f7      	bhi.n	8001aea <prvInsertBlockIntoFreeList+0xe>
 8001afa:	68fb      	ldr	r3, [r7, #12]
 8001afc:	60bb      	str	r3, [r7, #8]
 8001afe:	68fb      	ldr	r3, [r7, #12]
 8001b00:	685b      	ldr	r3, [r3, #4]
 8001b02:	68ba      	ldr	r2, [r7, #8]
 8001b04:	4413      	add	r3, r2
 8001b06:	687a      	ldr	r2, [r7, #4]
 8001b08:	429a      	cmp	r2, r3
 8001b0a:	d108      	bne.n	8001b1e <prvInsertBlockIntoFreeList+0x42>
 8001b0c:	68fb      	ldr	r3, [r7, #12]
 8001b0e:	685a      	ldr	r2, [r3, #4]
 8001b10:	687b      	ldr	r3, [r7, #4]
 8001b12:	685b      	ldr	r3, [r3, #4]
 8001b14:	441a      	add	r2, r3
 8001b16:	68fb      	ldr	r3, [r7, #12]
 8001b18:	605a      	str	r2, [r3, #4]
 8001b1a:	68fb      	ldr	r3, [r7, #12]
 8001b1c:	607b      	str	r3, [r7, #4]
 8001b1e:	687b      	ldr	r3, [r7, #4]
 8001b20:	60bb      	str	r3, [r7, #8]
 8001b22:	687b      	ldr	r3, [r7, #4]
 8001b24:	685b      	ldr	r3, [r3, #4]
 8001b26:	68ba      	ldr	r2, [r7, #8]
 8001b28:	441a      	add	r2, r3
 8001b2a:	68fb      	ldr	r3, [r7, #12]
 8001b2c:	681b      	ldr	r3, [r3, #0]
 8001b2e:	429a      	cmp	r2, r3
 8001b30:	d118      	bne.n	8001b64 <prvInsertBlockIntoFreeList+0x88>
 8001b32:	68fb      	ldr	r3, [r7, #12]
 8001b34:	681a      	ldr	r2, [r3, #0]
 8001b36:	4b15      	ldr	r3, [pc, #84]	; (8001b8c <prvInsertBlockIntoFreeList+0xb0>)
 8001b38:	681b      	ldr	r3, [r3, #0]
 8001b3a:	429a      	cmp	r2, r3
 8001b3c:	d00d      	beq.n	8001b5a <prvInsertBlockIntoFreeList+0x7e>
 8001b3e:	687b      	ldr	r3, [r7, #4]
 8001b40:	685a      	ldr	r2, [r3, #4]
 8001b42:	68fb      	ldr	r3, [r7, #12]
 8001b44:	681b      	ldr	r3, [r3, #0]
 8001b46:	685b      	ldr	r3, [r3, #4]
 8001b48:	441a      	add	r2, r3
 8001b4a:	687b      	ldr	r3, [r7, #4]
 8001b4c:	605a      	str	r2, [r3, #4]
 8001b4e:	68fb      	ldr	r3, [r7, #12]
 8001b50:	681b      	ldr	r3, [r3, #0]
 8001b52:	681a      	ldr	r2, [r3, #0]
 8001b54:	687b      	ldr	r3, [r7, #4]
 8001b56:	601a      	str	r2, [r3, #0]
 8001b58:	e008      	b.n	8001b6c <prvInsertBlockIntoFreeList+0x90>
 8001b5a:	4b0c      	ldr	r3, [pc, #48]	; (8001b8c <prvInsertBlockIntoFreeList+0xb0>)
 8001b5c:	681a      	ldr	r2, [r3, #0]
 8001b5e:	687b      	ldr	r3, [r7, #4]
 8001b60:	601a      	str	r2, [r3, #0]
 8001b62:	e003      	b.n	8001b6c <prvInsertBlockIntoFreeList+0x90>
 8001b64:	68fb      	ldr	r3, [r7, #12]
 8001b66:	681a      	ldr	r2, [r3, #0]
 8001b68:	687b      	ldr	r3, [r7, #4]
 8001b6a:	601a      	str	r2, [r3, #0]
 8001b6c:	68fa      	ldr	r2, [r7, #12]
 8001b6e:	687b      	ldr	r3, [r7, #4]
 8001b70:	429a      	cmp	r2, r3
 8001b72:	d002      	beq.n	8001b7a <prvInsertBlockIntoFreeList+0x9e>
 8001b74:	68fb      	ldr	r3, [r7, #12]
 8001b76:	687a      	ldr	r2, [r7, #4]
 8001b78:	601a      	str	r2, [r3, #0]
 8001b7a:	bf00      	nop
 8001b7c:	3714      	adds	r7, #20
 8001b7e:	46bd      	mov	sp, r7
 8001b80:	f85d 7b04 	ldr.w	r7, [sp], #4
 8001b84:	4770      	bx	lr
 8001b86:	bf00      	nop
 8001b88:	2000c864 	.word	0x2000c864
 8001b8c:	2000c86c 	.word	0x2000c86c

08001b90 <vListInitialise>:
 8001b90:	b480      	push	{r7}
 8001b92:	b083      	sub	sp, #12
 8001b94:	af00      	add	r7, sp, #0
 8001b96:	6078      	str	r0, [r7, #4]
 8001b98:	687b      	ldr	r3, [r7, #4]
 8001b9a:	f103 0208 	add.w	r2, r3, #8
 8001b9e:	687b      	ldr	r3, [r7, #4]
 8001ba0:	605a      	str	r2, [r3, #4]
 8001ba2:	687b      	ldr	r3, [r7, #4]
 8001ba4:	f04f 32ff 	mov.w	r2, #4294967295
 8001ba8:	609a      	str	r2, [r3, #8]
 8001baa:	687b      	ldr	r3, [r7, #4]
 8001bac:	f103 0208 	add.w	r2, r3, #8
 8001bb0:	687b      	ldr	r3, [r7, #4]
 8001bb2:	60da      	str	r2, [r3, #12]
 8001bb4:	687b      	ldr	r3, [r7, #4]
 8001bb6:	f103 0208 	add.w	r2, r3, #8
 8001bba:	687b      	ldr	r3, [r7, #4]
 8001bbc:	611a      	str	r2, [r3, #16]
 8001bbe:	687b      	ldr	r3, [r7, #4]
 8001bc0:	2200      	movs	r2, #0
 8001bc2:	601a      	str	r2, [r3, #0]
 8001bc4:	bf00      	nop
 8001bc6:	370c      	adds	r7, #12
 8001bc8:	46bd      	mov	sp, r7
 8001bca:	f85d 7b04 	ldr.w	r7, [sp], #4
 8001bce:	4770      	bx	lr

08001bd0 <vListInitialiseItem>:
 8001bd0:	b480      	push	{r7}
 8001bd2:	b083      	sub	sp, #12
 8001bd4:	af00      	add	r7, sp, #0
 8001bd6:	6078      	str	r0, [r7, #4]
 8001bd8:	687b      	ldr	r3, [r7, #4]
 8001bda:	2200      	movs	r2, #0
 8001bdc:	611a      	str	r2, [r3, #16]
 8001bde:	bf00      	nop
 8001be0:	370c      	adds	r7, #12
 8001be2:	46bd      	mov	sp, r7
 8001be4:	f85d 7b04 	ldr.w	r7, [sp], #4
 8001be8:	4770      	bx	lr

08001bea <vListInsert>:
 8001bea:	b480      	push	{r7}
 8001bec:	b085      	sub	sp, #20
 8001bee:	af00      	add	r7, sp, #0
 8001bf0:	6078      	str	r0, [r7, #4]
 8001bf2:	6039      	str	r1, [r7, #0]
 8001bf4:	683b      	ldr	r3, [r7, #0]
 8001bf6:	681b      	ldr	r3, [r3, #0]
 8001bf8:	60bb      	str	r3, [r7, #8]
 8001bfa:	68bb      	ldr	r3, [r7, #8]
 8001bfc:	f1b3 3fff 	cmp.w	r3, #4294967295
 8001c00:	d103      	bne.n	8001c0a <vListInsert+0x20>
 8001c02:	687b      	ldr	r3, [r7, #4]
 8001c04:	691b      	ldr	r3, [r3, #16]
 8001c06:	60fb      	str	r3, [r7, #12]
 8001c08:	e00c      	b.n	8001c24 <vListInsert+0x3a>
 8001c0a:	687b      	ldr	r3, [r7, #4]
 8001c0c:	3308      	adds	r3, #8
 8001c0e:	60fb      	str	r3, [r7, #12]
 8001c10:	e002      	b.n	8001c18 <vListInsert+0x2e>
 8001c12:	68fb      	ldr	r3, [r7, #12]
 8001c14:	685b      	ldr	r3, [r3, #4]
 8001c16:	60fb      	str	r3, [r7, #12]
 8001c18:	68fb      	ldr	r3, [r7, #12]
 8001c1a:	685b      	ldr	r3, [r3, #4]
 8001c1c:	681b      	ldr	r3, [r3, #0]
 8001c1e:	68ba      	ldr	r2, [r7, #8]
 8001c20:	429a      	cmp	r2, r3
 8001c22:	d2f6      	bcs.n	8001c12 <vListInsert+0x28>
 8001c24:	68fb      	ldr	r3, [r7, #12]
 8001c26:	685a      	ldr	r2, [r3, #4]
 8001c28:	683b      	ldr	r3, [r7, #0]
 8001c2a:	605a      	str	r2, [r3, #4]
 8001c2c:	683b      	ldr	r3, [r7, #0]
 8001c2e:	685b      	ldr	r3, [r3, #4]
 8001c30:	683a      	ldr	r2, [r7, #0]
 8001c32:	609a      	str	r2, [r3, #8]
 8001c34:	683b      	ldr	r3, [r7, #0]
 8001c36:	68fa      	ldr	r2, [r7, #12]
 8001c38:	609a      	str	r2, [r3, #8]
 8001c3a:	68fb      	ldr	r3, [r7, #12]
 8001c3c:	683a      	ldr	r2, [r7, #0]
 8001c3e:	605a      	str	r2, [r3, #4]
 8001c40:	683b      	ldr	r3, [r7, #0]
 8001c42:	687a      	ldr	r2, [r7, #4]
 8001c44:	611a      	str	r2, [r3, #16]
 8001c46:	687b      	ldr	r3, [r7, #4]
 8001c48:	681b      	ldr	r3, [r3, #0]
 8001c4a:	1c5a      	adds	r2, r3, #1
 8001c4c:	687b      	ldr	r3, [r7, #4]
 8001c4e:	601a      	str	r2, [r3, #0]
 8001c50:	bf00      	nop
 8001c52:	3714      	adds	r7, #20
 8001c54:	46bd      	mov	sp, r7
 8001c56:	f85d 7b04 	ldr.w	r7, [sp], #4
 8001c5a:	4770      	bx	lr

08001c5c <uxListRemove>:
 8001c5c:	b480      	push	{r7}
 8001c5e:	b085      	sub	sp, #20
 8001c60:	af00      	add	r7, sp, #0
 8001c62:	6078      	str	r0, [r7, #4]
 8001c64:	687b      	ldr	r3, [r7, #4]
 8001c66:	691b      	ldr	r3, [r3, #16]
 8001c68:	60fb      	str	r3, [r7, #12]
 8001c6a:	687b      	ldr	r3, [r7, #4]
 8001c6c:	685b      	ldr	r3, [r3, #4]
 8001c6e:	687a      	ldr	r2, [r7, #4]
 8001c70:	6892      	ldr	r2, [r2, #8]
 8001c72:	609a      	str	r2, [r3, #8]
 8001c74:	687b      	ldr	r3, [r7, #4]
 8001c76:	689b      	ldr	r3, [r3, #8]
 8001c78:	687a      	ldr	r2, [r7, #4]
 8001c7a:	6852      	ldr	r2, [r2, #4]
 8001c7c:	605a      	str	r2, [r3, #4]
 8001c7e:	68fb      	ldr	r3, [r7, #12]
 8001c80:	685b      	ldr	r3, [r3, #4]
 8001c82:	687a      	ldr	r2, [r7, #4]
 8001c84:	429a      	cmp	r2, r3
 8001c86:	d103      	bne.n	8001c90 <uxListRemove+0x34>
 8001c88:	687b      	ldr	r3, [r7, #4]
 8001c8a:	689a      	ldr	r2, [r3, #8]
 8001c8c:	68fb      	ldr	r3, [r7, #12]
 8001c8e:	605a      	str	r2, [r3, #4]
 8001c90:	687b      	ldr	r3, [r7, #4]
 8001c92:	2200      	movs	r2, #0
 8001c94:	611a      	str	r2, [r3, #16]
 8001c96:	68fb      	ldr	r3, [r7, #12]
 8001c98:	681b      	ldr	r3, [r3, #0]
 8001c9a:	1e5a      	subs	r2, r3, #1
 8001c9c:	68fb      	ldr	r3, [r7, #12]
 8001c9e:	601a      	str	r2, [r3, #0]
 8001ca0:	68fb      	ldr	r3, [r7, #12]
 8001ca2:	681b      	ldr	r3, [r3, #0]
 8001ca4:	4618      	mov	r0, r3
 8001ca6:	3714      	adds	r7, #20
 8001ca8:	46bd      	mov	sp, r7
 8001caa:	f85d 7b04 	ldr.w	r7, [sp], #4
 8001cae:	4770      	bx	lr

08001cb0 <FireSensing>:
u8 Humidity;
s8 Temperature;
u8 DHT11_errorCode;

void FireSensing(void* pvParameters)
{
 8001cb0:	b580      	push	{r7, lr}
 8001cb2:	b084      	sub	sp, #16
 8001cb4:	af00      	add	r7, sp, #0
 8001cb6:	6078      	str	r0, [r7, #4]
	TickType_t xLastWakeTime;
	xLastWakeTime = xTaskGetTickCount (); // Get Last Time the Task Started
 8001cb8:	f001 fa80 	bl	80031bc <xTaskGetTickCount>
 8001cbc:	4603      	mov	r3, r0
 8001cbe:	60fb      	str	r3, [r7, #12]
	while(1)
	{

		FireSensor_ReadingValue = 0;
 8001cc0:	4b08      	ldr	r3, [pc, #32]	; (8001ce4 <FireSensing+0x34>)
 8001cc2:	2200      	movs	r2, #0
 8001cc4:	701a      	strb	r2, [r3, #0]
		FireSensor_ReadingValue = DigitalSensor_u8Sensing(LM393);
 8001cc6:	4b08      	ldr	r3, [pc, #32]	; (8001ce8 <FireSensing+0x38>)
 8001cc8:	7818      	ldrb	r0, [r3, #0]
 8001cca:	f7fe fc29 	bl	8000520 <DigitalSensor_u8Sensing>
 8001cce:	4603      	mov	r3, r0
 8001cd0:	461a      	mov	r2, r3
 8001cd2:	4b04      	ldr	r3, [pc, #16]	; (8001ce4 <FireSensing+0x34>)
 8001cd4:	701a      	strb	r2, [r3, #0]

		vTaskDelayUntil(&xLastWakeTime, 100); // Schedule the Task Every 0.1sec
 8001cd6:	f107 030c 	add.w	r3, r7, #12
 8001cda:	2164      	movs	r1, #100	; 0x64
 8001cdc:	4618      	mov	r0, r3
 8001cde:	f001 f8a1 	bl	8002e24 <xTaskDelayUntil>
		FireSensor_ReadingValue = 0;
 8001ce2:	e7ed      	b.n	8001cc0 <FireSensing+0x10>
 8001ce4:	2000c885 	.word	0x2000c885
 8001ce8:	20000000 	.word	0x20000000

08001cec <FireAction>:
	 }
}

void FireAction(void* pvParameters)
{
 8001cec:	b580      	push	{r7, lr}
 8001cee:	b084      	sub	sp, #16
 8001cf0:	af00      	add	r7, sp, #0
 8001cf2:	6078      	str	r0, [r7, #4]
	LinkMessage_t Message;

	TickType_t xLastWakeTime;
	xLastWakeTime = xTaskGetTickCount (); // Get the Last Time the Task Started
 8001cf4:	f001 fa62 	bl	80031bc <xTaskGetTickCount>
 8001cf8:	4603      	mov	r3, r0
 8001cfa:	60bb      	str	r3, [r7, #8]
	while(1)
	{
		GPIO_u8SetPinValue (GPIO_PORTA, GPIO_PIN0, !FireSensor_ReadingValue);
 8001cfc:	4b10      	ldr	r3, [pc, #64]	; (8001d40 <FireAction+0x54>)
 8001cfe:	781b      	ldrb	r3, [r3, #0]
 8001d00:	2b00      	cmp	r3, #0
 8001d02:	bf0c      	ite	eq
 8001d04:	2301      	moveq	r3, #1
 8001d06:	2300      	movne	r3, #0
 8001d08:	b2db      	uxtb	r3, r3
 8001d0a:	461a      	mov	r2, r3
 8001d0c:	2100      	movs	r1, #0
 8001d0e:	2001      	movs	r0, #1
 8001d10:	f7fe fd3a 	bl	8000788 <GPIO_u8SetPinValue>

		// Send the Reading to the Queue to send it to the Raspberry
		Message.source = LINK_SOURCE_FLAME;
 8001d14:	2301      	movs	r3, #1
 8001d16:	733b      	strb	r3, [r7, #12]
		Message.type = LINK_FLAME_TYPE_READING;
 8001d18:	2300      	movs	r3, #0
 8001d1a:	737b      	strb	r3, [r7, #13]
		Message.data = !FireSensor_ReadingValue;
 8001d1c:	4b08      	ldr	r3, [pc, #32]	; (8001d40 <FireAction+0x54>)
 8001d1e:	781b      	ldrb	r3, [r3, #0]
 8001d20:	2b00      	cmp	r3, #0
 8001d22:	bf0c      	ite	eq
 8001d24:	2301      	moveq	r3, #1
 8001d26:	2300      	movne	r3, #0
 8001d28:	b2db      	uxtb	r3, r3
 8001d2a:	73bb      	strb	r3, [r7, #14]
		Link_voidEnqueueMessage(Message);
 8001d2c:	68f8      	ldr	r0, [r7, #12]
 8001d2e:	f7ff f893 	bl	8000e58 <Link_voidEnqueueMessage>


		vTaskDelayUntil(&xLastWakeTime, 100); // Schedule the Task Every 0.1sec
 8001d32:	f107 0308 	add.w	r3, r7, #8
 8001d36:	2164      	movs	r1, #100	; 0x64
 8001d38:	4618      	mov	r0, r3
 8001d3a:	f001 f873 	bl	8002e24 <xTaskDelayUntil>
		GPIO_u8SetPinValue (GPIO_PORTA, GPIO_PIN0, !FireSensor_ReadingValue);
 8001d3e:	e7dd      	b.n	8001cfc <FireAction+0x10>
 8001d40:	2000c885 	.word	0x2000c885

08001d44 <PIRSensing>:
	 }
}

void PIRSensing(void* pvParameters)
{
 8001d44:	b580      	push	{r7, lr}
 8001d46:	b084      	sub	sp, #16
 8001d48:	af00      	add	r7, sp, #0
 8001d4a:	6078      	str	r0, [r7, #4]
	TickType_t xLastWakeTime;
	xLastWakeTime = xTaskGetTickCount (); // Get Last Time the Task Started
 8001d4c:	f001 fa36 	bl	80031bc <xTaskGetTickCount>
 8001d50:	4603      	mov	r3, r0
 8001d52:	60fb      	str	r3, [r7, #12]
	while(1)
	{
		PIR_ReadingValue = 0;
 8001d54:	4b09      	ldr	r3, [pc, #36]	; (8001d7c <PIRSensing+0x38>)
 8001d56:	2200      	movs	r2, #0
 8001d58:	701a      	strb	r2, [r3, #0]
		PIR_ReadingValue = DigitalSensor_u8Sensing(PIR);
 8001d5a:	4b09      	ldr	r3, [pc, #36]	; (8001d80 <PIRSensing+0x3c>)
 8001d5c:	7818      	ldrb	r0, [r3, #0]
 8001d5e:	f7fe fbdf 	bl	8000520 <DigitalSensor_u8Sensing>
 8001d62:	4603      	mov	r3, r0
 8001d64:	461a      	mov	r2, r3
 8001d66:	4b05      	ldr	r3, [pc, #20]	; (8001d7c <PIRSensing+0x38>)
 8001d68:	701a      	strb	r2, [r3, #0]

		vTaskDelayUntil(&xLastWakeTime, 1000); // Schedule the Task Every 1sec
 8001d6a:	f107 030c 	add.w	r3, r7, #12
 8001d6e:	f44f 717a 	mov.w	r1, #1000	; 0x3e8
 8001d72:	4618      	mov	r0, r3
 8001d74:	f001 f856 	bl	8002e24 <xTaskDelayUntil>
		PIR_ReadingValue = 0;
 8001d78:	e7ec      	b.n	8001d54 <PIRSensing+0x10>
 8001d7a:	bf00      	nop
 8001d7c:	2000c884 	.word	0x2000c884
 8001d80:	20000004 	.word	0x20000004

08001d84 <PIRAction>:
	 }
}

void PIRAction(void* pvParameters)
{
 8001d84:	b580      	push	{r7, lr}
 8001d86:	b084      	sub	sp, #16
 8001d88:	af00      	add	r7, sp, #0
 8001d8a:	6078      	str	r0, [r7, #4]
	LinkMessage_t Message;

	TickType_t xLastWakeTime;
	xLastWakeTime = xTaskGetTickCount (); // Get the Last Time the Task Started
 8001d8c:	f001 fa16 	bl	80031bc <xTaskGetTickCount>
 8001d90:	4603      	mov	r3, r0
 8001d92:	60bb      	str	r3, [r7, #8]
	while(1)
	{
		GPIO_u8SetPinValue (GPIO_PORTA, GPIO_PIN2, PIR_ReadingValue);
 8001d94:	4b0c      	ldr	r3, [pc, #48]	; (8001dc8 <PIRAction+0x44>)
 8001d96:	781b      	ldrb	r3, [r3, #0]
 8001d98:	461a      	mov	r2, r3
 8001d9a:	2102      	movs	r1, #2
 8001d9c:	2001      	movs	r0, #1
 8001d9e:	f7fe fcf3 	bl	8000788 <GPIO_u8SetPinValue>

		// Send the Reading to the Queue to send it to the Raspberry
		Message.source = LINK_SOURCE_PIR;
 8001da2:	2302      	movs	r3, #2
 8001da4:	733b      	strb	r3, [r7, #12]
		Message.type = LINK_PIR_TYPE_READING;
 8001da6:	2300      	movs	r3, #0
 8001da8:	737b      	strb	r3, [r7, #13]
		Message.data = PIR_ReadingValue;
 8001daa:	4b07      	ldr	r3, [pc, #28]	; (8001dc8 <PIRAction+0x44>)
 8001dac:	781b      	ldrb	r3, [r3, #0]
 8001dae:	73bb      	strb	r3, [r7, #14]
		Link_voidEnqueueMessage(Message);
 8001db0:	68f8      	ldr	r0, [r7, #12]
 8001db2:	f7ff f851 	bl	8000e58 <Link_voidEnqueueMessage>

		vTaskDelayUntil(&xLastWakeTime, 1000); // Schedule the Task Every 1sec
 8001db6:	f107 0308 	add.w	r3, r7, #8
 8001dba:	f44f 717a 	mov.w	r1, #1000	; 0x3e8
 8001dbe:	4618      	mov	r0, r3
 8001dc0:	f001 f830 	bl	8002e24 <xTaskDelayUntil>
		GPIO_u8SetPinValue (GPIO_PORTA, GPIO_PIN2, PIR_ReadingValue);
 8001dc4:	e7e6      	b.n	8001d94 <PIRAction+0x10>
 8001dc6:	bf00      	nop
 8001dc8:	2000c884 	.word	0x2000c884

08001dcc <DoorSystemSensing>:
	 }
}

void DoorSystemSensing(void* pvParameters)
{
 8001dcc:	b580      	push	{r7, lr}
 8001dce:	b084      	sub	sp, #16
 8001dd0:	af00      	add	r7, sp, #0
 8001dd2:	6078      	str	r0, [r7, #4]
	TickType_t xLastWakeTime;
	xLastWakeTime = xTaskGetTickCount (); // Get the Last Time the Task Started
 8001dd4:	f001 f9f2 	bl	80031bc <xTaskGetTickCount>
 8001dd8:	4603      	mov	r3, r0
 8001dda:	60fb      	str	r3, [r7, #12]
	while(1)
	{
		SwitchReading = 1;
 8001ddc:	4b07      	ldr	r3, [pc, #28]	; (8001dfc <DoorSystemSensing+0x30>)
 8001dde:	2201      	movs	r2, #1
 8001de0:	701a      	strb	r2, [r3, #0]
		GPIO_u8GetPinValue (GPIO_PORTB, GPIO_PIN1, &SwitchReading);
 8001de2:	4a06      	ldr	r2, [pc, #24]	; (8001dfc <DoorSystemSensing+0x30>)
 8001de4:	2101      	movs	r1, #1
 8001de6:	2002      	movs	r0, #2
 8001de8:	f7fe fde4 	bl	80009b4 <GPIO_u8GetPinValue>

		vTaskDelayUntil(&xLastWakeTime, 1000); // Schedule the Task Every 1sec
 8001dec:	f107 030c 	add.w	r3, r7, #12
 8001df0:	f44f 717a 	mov.w	r1, #1000	; 0x3e8
 8001df4:	4618      	mov	r0, r3
 8001df6:	f001 f815 	bl	8002e24 <xTaskDelayUntil>
		SwitchReading = 1;
 8001dfa:	e7ef      	b.n	8001ddc <DoorSystemSensing+0x10>
 8001dfc:	2000c886 	.word	0x2000c886

08001e00 <DoorSystemAction>:
	}
}

void DoorSystemAction(void* pvParameters)
{
 8001e00:	b580      	push	{r7, lr}
 8001e02:	b084      	sub	sp, #16
 8001e04:	af00      	add	r7, sp, #0
 8001e06:	6078      	str	r0, [r7, #4]
	TickType_t xLastWakeTime;
	xLastWakeTime = xTaskGetTickCount (); // Get the Last Time the Task Started
 8001e08:	f001 f9d8 	bl	80031bc <xTaskGetTickCount>
 8001e0c:	4603      	mov	r3, r0
 8001e0e:	60fb      	str	r3, [r7, #12]
	while(1)
	{
		GPIO_u8SetPinValue (GPIO_PORTA, GPIO_PIN1, !SwitchReading);
 8001e10:	4b09      	ldr	r3, [pc, #36]	; (8001e38 <DoorSystemAction+0x38>)
 8001e12:	781b      	ldrb	r3, [r3, #0]
 8001e14:	2b00      	cmp	r3, #0
 8001e16:	bf0c      	ite	eq
 8001e18:	2301      	moveq	r3, #1
 8001e1a:	2300      	movne	r3, #0
 8001e1c:	b2db      	uxtb	r3, r3
 8001e1e:	461a      	mov	r2, r3
 8001e20:	2101      	movs	r1, #1
 8001e22:	2001      	movs	r0, #1
 8001e24:	f7fe fcb0 	bl	8000788 <GPIO_u8SetPinValue>

		vTaskDelayUntil(&xLastWakeTime, 1000); // Schedule the Task Every 1sec
 8001e28:	f107 030c 	add.w	r3, r7, #12
 8001e2c:	f44f 717a 	mov.w	r1, #1000	; 0x3e8
 8001e30:	4618      	mov	r0, r3
 8001e32:	f000 fff7 	bl	8002e24 <xTaskDelayUntil>
		GPIO_u8SetPinValue (GPIO_PORTA, GPIO_PIN1, !SwitchReading);
 8001e36:	e7eb      	b.n	8001e10 <DoorSystemAction+0x10>
 8001e38:	2000c886 	.word	0x2000c886

08001e3c <TempSensing>:
	}
}

void TempSensing(void* pvParameters)
{
 8001e3c:	b580      	push	{r7, lr}
 8001e3e:	b084      	sub	sp, #16
 8001e40:	af00      	add	r7, sp, #0
 8001e42:	6078      	str	r0, [r7, #4]
	TickType_t xLastWakeTime;
	xLastWakeTime = xTaskGetTickCount (); // Get the Last Time the Task Started
 8001e44:	f001 f9ba 	bl	80031bc <xTaskGetTickCount>
 8001e48:	4603      	mov	r3, r0
 8001e4a:	60fb      	str	r3, [r7, #12]
	while(1)
	{
		DHT11_errorCode = DHT11_voidRawDataUpdate();
 8001e4c:	f7fe f9fa 	bl	8000244 <DHT11_voidRawDataUpdate>
 8001e50:	4603      	mov	r3, r0
 8001e52:	461a      	mov	r2, r3
 8001e54:	4b06      	ldr	r3, [pc, #24]	; (8001e70 <TempSensing+0x34>)
 8001e56:	701a      	strb	r2, [r3, #0]
		DHT11_u8GetReadings(&Humidity, &Temperature);
 8001e58:	4906      	ldr	r1, [pc, #24]	; (8001e74 <TempSensing+0x38>)
 8001e5a:	4807      	ldr	r0, [pc, #28]	; (8001e78 <TempSensing+0x3c>)
 8001e5c:	f7fe fae2 	bl	8000424 <DHT11_u8GetReadings>

		vTaskDelayUntil(&xLastWakeTime, 2000); // Schedule the Task Every 2sec
 8001e60:	f107 030c 	add.w	r3, r7, #12
 8001e64:	f44f 61fa 	mov.w	r1, #2000	; 0x7d0
 8001e68:	4618      	mov	r0, r3
 8001e6a:	f000 ffdb 	bl	8002e24 <xTaskDelayUntil>
		DHT11_errorCode = DHT11_voidRawDataUpdate();
 8001e6e:	e7ed      	b.n	8001e4c <TempSensing+0x10>
 8001e70:	2000c889 	.word	0x2000c889
 8001e74:	2000c888 	.word	0x2000c888
 8001e78:	2000c887 	.word	0x2000c887

08001e7c <TempAction>:
	}
}

void TempAction(void* pvParameters)
{
 8001e7c:	b580      	push	{r7, lr}
 8001e7e:	b084      	sub	sp, #16
 8001e80:	af00      	add	r7, sp, #0
 8001e82:	6078      	str	r0, [r7, #4]
	LinkMessage_t Message;

	TickType_t xLastWakeTime;
	xLastWakeTime = xTaskGetTickCount (); // Get the Last Time the Task Started
 8001e84:	f001 f99a 	bl	80031bc <xTaskGetTickCount>
 8001e88:	4603      	mov	r3, r0
 8001e8a:	60bb      	str	r3, [r7, #8]
	while(1)
	{
		Message.source = LINK_SOURCE_DHT11;
 8001e8c:	2300      	movs	r3, #0
 8001e8e:	733b      	strb	r3, [r7, #12]
		if (DHT11_errorCode == 0)
 8001e90:	4b2c      	ldr	r3, [pc, #176]	; (8001f44 <TempAction+0xc8>)
 8001e92:	781b      	ldrb	r3, [r3, #0]
 8001e94:	2b00      	cmp	r3, #0
 8001e96:	d144      	bne.n	8001f22 <TempAction+0xa6>
		{
			if (Temperature > 25)
 8001e98:	4b2b      	ldr	r3, [pc, #172]	; (8001f48 <TempAction+0xcc>)
 8001e9a:	f993 3000 	ldrsb.w	r3, [r3]
 8001e9e:	2b19      	cmp	r3, #25
 8001ea0:	dd0a      	ble.n	8001eb8 <TempAction+0x3c>
			{
				GPIO_u8SetPinValue (GPIO_PORTA, GPIO_PIN4, GPIO_HIGH); // Blue LED to Declare that The Cool Air Condition is ON
 8001ea2:	2201      	movs	r2, #1
 8001ea4:	2104      	movs	r1, #4
 8001ea6:	2001      	movs	r0, #1
 8001ea8:	f7fe fc6e 	bl	8000788 <GPIO_u8SetPinValue>
				GPIO_u8SetPinValue (GPIO_PORTA, GPIO_PIN5, GPIO_LOW);
 8001eac:	2200      	movs	r2, #0
 8001eae:	2105      	movs	r1, #5
 8001eb0:	2001      	movs	r0, #1
 8001eb2:	f7fe fc69 	bl	8000788 <GPIO_u8SetPinValue>
 8001eb6:	e019      	b.n	8001eec <TempAction+0x70>
			}
			else if (Temperature < 25)
 8001eb8:	4b23      	ldr	r3, [pc, #140]	; (8001f48 <TempAction+0xcc>)
 8001eba:	f993 3000 	ldrsb.w	r3, [r3]
 8001ebe:	2b18      	cmp	r3, #24
 8001ec0:	dc0a      	bgt.n	8001ed8 <TempAction+0x5c>
			{
				GPIO_u8SetPinValue (GPIO_PORTA, GPIO_PIN5, GPIO_HIGH); // Red LED to Declare that The Heat Air Condition is ON
 8001ec2:	2201      	movs	r2, #1
 8001ec4:	2105      	movs	r1, #5
 8001ec6:	2001      	movs	r0, #1
 8001ec8:	f7fe fc5e 	bl	8000788 <GPIO_u8SetPinValue>
				GPIO_u8SetPinValue (GPIO_PORTA, GPIO_PIN4, GPIO_LOW);
 8001ecc:	2200      	movs	r2, #0
 8001ece:	2104      	movs	r1, #4
 8001ed0:	2001      	movs	r0, #1
 8001ed2:	f7fe fc59 	bl	8000788 <GPIO_u8SetPinValue>
 8001ed6:	e009      	b.n	8001eec <TempAction+0x70>
			}
			else
			{
				GPIO_u8SetPinValue (GPIO_PORTA, GPIO_PIN4, GPIO_LOW);
 8001ed8:	2200      	movs	r2, #0
 8001eda:	2104      	movs	r1, #4
 8001edc:	2001      	movs	r0, #1
 8001ede:	f7fe fc53 	bl	8000788 <GPIO_u8SetPinValue>
				GPIO_u8SetPinValue (GPIO_PORTA, GPIO_PIN5, GPIO_LOW);
 8001ee2:	2200      	movs	r2, #0
 8001ee4:	2105      	movs	r1, #5
 8001ee6:	2001      	movs	r0, #1
 8001ee8:	f7fe fc4e 	bl	8000788 <GPIO_u8SetPinValue>
			}

			// Send the Reading to the Queue to send it to the Raspberry
			Message.type = LINK_DHT11_TYPE_TEMPERATURE;
 8001eec:	2301      	movs	r3, #1
 8001eee:	737b      	strb	r3, [r7, #13]
			Message.data = Temperature;
 8001ef0:	4b15      	ldr	r3, [pc, #84]	; (8001f48 <TempAction+0xcc>)
 8001ef2:	f993 3000 	ldrsb.w	r3, [r3]
 8001ef6:	b2db      	uxtb	r3, r3
 8001ef8:	73bb      	strb	r3, [r7, #14]
			Link_voidEnqueueMessage(Message);
 8001efa:	68f8      	ldr	r0, [r7, #12]
 8001efc:	f7fe ffac 	bl	8000e58 <Link_voidEnqueueMessage>

			Message.type = LINK_DHT11_TYPE_HUMIDITY;
 8001f00:	2302      	movs	r3, #2
 8001f02:	737b      	strb	r3, [r7, #13]
			Message.data = Humidity;
 8001f04:	4b11      	ldr	r3, [pc, #68]	; (8001f4c <TempAction+0xd0>)
 8001f06:	781b      	ldrb	r3, [r3, #0]
 8001f08:	73bb      	strb	r3, [r7, #14]
			Link_voidEnqueueMessage(Message);
 8001f0a:	68f8      	ldr	r0, [r7, #12]
 8001f0c:	f7fe ffa4 	bl	8000e58 <Link_voidEnqueueMessage>

			Message.type = LINK_DHT11_TYPE_ERROR;
 8001f10:	2303      	movs	r3, #3
 8001f12:	737b      	strb	r3, [r7, #13]
			Message.data = DHT11_errorCode;
 8001f14:	4b0b      	ldr	r3, [pc, #44]	; (8001f44 <TempAction+0xc8>)
 8001f16:	781b      	ldrb	r3, [r3, #0]
 8001f18:	73bb      	strb	r3, [r7, #14]
			Link_voidEnqueueMessage(Message);
 8001f1a:	68f8      	ldr	r0, [r7, #12]
 8001f1c:	f7fe ff9c 	bl	8000e58 <Link_voidEnqueueMessage>
 8001f20:	e007      	b.n	8001f32 <TempAction+0xb6>
		}
		else
		{
			Message.type = LINK_DHT11_TYPE_ERROR;
 8001f22:	2303      	movs	r3, #3
 8001f24:	737b      	strb	r3, [r7, #13]
			Message.data = DHT11_errorCode;
 8001f26:	4b07      	ldr	r3, [pc, #28]	; (8001f44 <TempAction+0xc8>)
 8001f28:	781b      	ldrb	r3, [r3, #0]
 8001f2a:	73bb      	strb	r3, [r7, #14]
			Link_voidEnqueueMessage(Message);
 8001f2c:	68f8      	ldr	r0, [r7, #12]
 8001f2e:	f7fe ff93 	bl	8000e58 <Link_voidEnqueueMessage>
		}
		vTaskDelayUntil(&xLastWakeTime, 2000); // Schedule the Task Every 2sec
 8001f32:	f107 0308 	add.w	r3, r7, #8
 8001f36:	f44f 61fa 	mov.w	r1, #2000	; 0x7d0
 8001f3a:	4618      	mov	r0, r3
 8001f3c:	f000 ff72 	bl	8002e24 <xTaskDelayUntil>
		Message.source = LINK_SOURCE_DHT11;
 8001f40:	e7a4      	b.n	8001e8c <TempAction+0x10>
 8001f42:	bf00      	nop
 8001f44:	2000c889 	.word	0x2000c889
 8001f48:	2000c888 	.word	0x2000c888
 8001f4c:	2000c887 	.word	0x2000c887

08001f50 <SendMessege>:
	}
}

void SendMessege(void* pvParameters)
{
 8001f50:	b580      	push	{r7, lr}
 8001f52:	b084      	sub	sp, #16
 8001f54:	af00      	add	r7, sp, #0
 8001f56:	6078      	str	r0, [r7, #4]
	TickType_t xLastWakeTime;
	xLastWakeTime = xTaskGetTickCount (); // Get the Last Time the Task Started
 8001f58:	f001 f930 	bl	80031bc <xTaskGetTickCount>
 8001f5c:	4603      	mov	r3, r0
 8001f5e:	60bb      	str	r3, [r7, #8]
	while(1)
	{
		u8 RX = 0;
 8001f60:	2300      	movs	r3, #0
 8001f62:	73fb      	strb	r3, [r7, #15]
		RX = Link_u8SendDequeueMessage(); // Send the Message
 8001f64:	f7ff f832 	bl	8000fcc <Link_u8SendDequeueMessage>
 8001f68:	4603      	mov	r3, r0
 8001f6a:	73fb      	strb	r3, [r7, #15]
		vTaskDelayUntil(&xLastWakeTime, 200); // Schedule the Task Every 50ms
 8001f6c:	f107 0308 	add.w	r3, r7, #8
 8001f70:	21c8      	movs	r1, #200	; 0xc8
 8001f72:	4618      	mov	r0, r3
 8001f74:	f000 ff56 	bl	8002e24 <xTaskDelayUntil>
	{
 8001f78:	e7f2      	b.n	8001f60 <SendMessege+0x10>
	...

08001f7c <main>:
	}
}

int main()
{
 8001f7c:	b580      	push	{r7, lr}
 8001f7e:	b084      	sub	sp, #16
 8001f80:	af04      	add	r7, sp, #16
	RCC_u8SystemClkInitialization();
 8001f82:	f7ff f8b5 	bl	80010f0 <RCC_u8SystemClkInitialization>
	RCC_u8Enable	(RCC_AHB1, RCC_GPIOA);
 8001f86:	2100      	movs	r1, #0
 8001f88:	2001      	movs	r0, #1
 8001f8a:	f7ff f965 	bl	8001258 <RCC_u8Enable>
	RCC_u8Enable	(RCC_AHB1, RCC_GPIOB);
 8001f8e:	2101      	movs	r1, #1
 8001f90:	2001      	movs	r0, #1
 8001f92:	f7ff f961 	bl	8001258 <RCC_u8Enable>
	RCC_u8Enable	(RCC_APB1, RCC_SPI2);
 8001f96:	210e      	movs	r1, #14
 8001f98:	2003      	movs	r0, #3
 8001f9a:	f7ff f95d 	bl	8001258 <RCC_u8Enable>

	/** Initialize Fire System GPIO **/
	GPIO_u8SetGPIOPinMode	(GPIO_PORTB, GPIO_PIN0, GPIO_MODER_INPUT);
 8001f9e:	2200      	movs	r2, #0
 8001fa0:	2100      	movs	r1, #0
 8001fa2:	2002      	movs	r0, #2
 8001fa4:	f7fe fad6 	bl	8000554 <GPIO_u8SetGPIOPinMode>
	GPIO_u8SetGPIOPinMode	(GPIO_PORTA, GPIO_PIN0, GPIO_MODER_OUTPUT);
 8001fa8:	2201      	movs	r2, #1
 8001faa:	2100      	movs	r1, #0
 8001fac:	2001      	movs	r0, #1
 8001fae:	f7fe fad1 	bl	8000554 <GPIO_u8SetGPIOPinMode>

	/** Initialize Door System GPIO **/
	GPIO_u8SetGPIOPinMode	(GPIO_PORTB, GPIO_PIN1, GPIO_MODER_INPUT);
 8001fb2:	2200      	movs	r2, #0
 8001fb4:	2101      	movs	r1, #1
 8001fb6:	2002      	movs	r0, #2
 8001fb8:	f7fe facc 	bl	8000554 <GPIO_u8SetGPIOPinMode>
	GPIO_u8SetOutputPinMode	(GPIO_PORTB, GPIO_PIN1, GPIO_OTYPER_PUSH_PULL);
 8001fbc:	2200      	movs	r2, #0
 8001fbe:	2101      	movs	r1, #1
 8001fc0:	2002      	movs	r0, #2
 8001fc2:	f7fe fb49 	bl	8000658 <GPIO_u8SetOutputPinMode>
	GPIO_u8SetPullResMode	(GPIO_PORTB, GPIO_PIN1, GPIO_PUPDR_PULLUP);
 8001fc6:	2201      	movs	r2, #1
 8001fc8:	2101      	movs	r1, #1
 8001fca:	2002      	movs	r0, #2
 8001fcc:	f7fe fd56 	bl	8000a7c <GPIO_u8SetPullResMode>
	GPIO_u8SetPinValue 		(GPIO_PORTB, GPIO_PIN1, GPIO_HIGH);
 8001fd0:	2201      	movs	r2, #1
 8001fd2:	2101      	movs	r1, #1
 8001fd4:	2002      	movs	r0, #2
 8001fd6:	f7fe fbd7 	bl	8000788 <GPIO_u8SetPinValue>
	GPIO_u8SetGPIOPinMode	(GPIO_PORTA, GPIO_PIN1, GPIO_MODER_OUTPUT);
 8001fda:	2201      	movs	r2, #1
 8001fdc:	2101      	movs	r1, #1
 8001fde:	2001      	movs	r0, #1
 8001fe0:	f7fe fab8 	bl	8000554 <GPIO_u8SetGPIOPinMode>

	/** Initialize PIR System GPIO **/
	GPIO_u8SetGPIOPinMode	(GPIO_PORTB, GPIO_PIN2, GPIO_MODER_INPUT);
 8001fe4:	2200      	movs	r2, #0
 8001fe6:	2102      	movs	r1, #2
 8001fe8:	2002      	movs	r0, #2
 8001fea:	f7fe fab3 	bl	8000554 <GPIO_u8SetGPIOPinMode>
	GPIO_u8SetGPIOPinMode	(GPIO_PORTA, GPIO_PIN2, GPIO_MODER_OUTPUT);
 8001fee:	2201      	movs	r2, #1
 8001ff0:	2102      	movs	r1, #2
 8001ff2:	2001      	movs	r0, #1
 8001ff4:	f7fe faae 	bl	8000554 <GPIO_u8SetGPIOPinMode>

	/** Initialize Temperature System OUTPUT GPIO **/
	GPIO_u8SetGPIOPinMode	(GPIO_PORTA, GPIO_PIN4, GPIO_MODER_OUTPUT);
 8001ff8:	2201      	movs	r2, #1
 8001ffa:	2104      	movs	r1, #4
 8001ffc:	2001      	movs	r0, #1
 8001ffe:	f7fe faa9 	bl	8000554 <GPIO_u8SetGPIOPinMode>
	GPIO_u8SetGPIOPinMode	(GPIO_PORTA, GPIO_PIN5, GPIO_MODER_OUTPUT);
 8002002:	2201      	movs	r2, #1
 8002004:	2105      	movs	r1, #5
 8002006:	2001      	movs	r0, #1
 8002008:	f7fe faa4 	bl	8000554 <GPIO_u8SetGPIOPinMode>

	/** Initialize SPI2 Pins **/
	GPIO_u8SetGPIOPinMode			(GPIO_PORTB, GPIO_PIN12, GPIO_MODER_ALTERNATE);
 800200c:	2202      	movs	r2, #2
 800200e:	210c      	movs	r1, #12
 8002010:	2002      	movs	r0, #2
 8002012:	f7fe fa9f 	bl	8000554 <GPIO_u8SetGPIOPinMode>
	GPIO_voidSetAlternativeFunction	(GPIO_PORTB, GPIO_PIN12, AF5); // SPI2 NSS
 8002016:	2205      	movs	r2, #5
 8002018:	210c      	movs	r1, #12
 800201a:	2002      	movs	r0, #2
 800201c:	f7fe fdb0 	bl	8000b80 <GPIO_voidSetAlternativeFunction>
	GPIO_u8SetPinOutputSpeed		(GPIO_PORTB, GPIO_PIN12, Very_High_Speed);
 8002020:	220b      	movs	r2, #11
 8002022:	210c      	movs	r1, #12
 8002024:	2002      	movs	r0, #2
 8002026:	f7fe fe95 	bl	8000d54 <GPIO_u8SetPinOutputSpeed>

	GPIO_u8SetGPIOPinMode			(GPIO_PORTB, GPIO_PIN13, GPIO_MODER_ALTERNATE);
 800202a:	2202      	movs	r2, #2
 800202c:	210d      	movs	r1, #13
 800202e:	2002      	movs	r0, #2
 8002030:	f7fe fa90 	bl	8000554 <GPIO_u8SetGPIOPinMode>
	GPIO_voidSetAlternativeFunction	(GPIO_PORTB, GPIO_PIN13, AF5); // SPI2 SCK
 8002034:	2205      	movs	r2, #5
 8002036:	210d      	movs	r1, #13
 8002038:	2002      	movs	r0, #2
 800203a:	f7fe fda1 	bl	8000b80 <GPIO_voidSetAlternativeFunction>
	GPIO_u8SetPinOutputSpeed		(GPIO_PORTB, GPIO_PIN13, Very_High_Speed);
 800203e:	220b      	movs	r2, #11
 8002040:	210d      	movs	r1, #13
 8002042:	2002      	movs	r0, #2
 8002044:	f7fe fe86 	bl	8000d54 <GPIO_u8SetPinOutputSpeed>

	GPIO_u8SetGPIOPinMode			(GPIO_PORTB, GPIO_PIN14, GPIO_MODER_ALTERNATE);
 8002048:	2202      	movs	r2, #2
 800204a:	210e      	movs	r1, #14
 800204c:	2002      	movs	r0, #2
 800204e:	f7fe fa81 	bl	8000554 <GPIO_u8SetGPIOPinMode>
	GPIO_voidSetAlternativeFunction	(GPIO_PORTB, GPIO_PIN14, AF5); // SPI2 MISO
 8002052:	2205      	movs	r2, #5
 8002054:	210e      	movs	r1, #14
 8002056:	2002      	movs	r0, #2
 8002058:	f7fe fd92 	bl	8000b80 <GPIO_voidSetAlternativeFunction>
	GPIO_u8SetPinOutputSpeed		(GPIO_PORTB, GPIO_PIN14, Very_High_Speed);
 800205c:	220b      	movs	r2, #11
 800205e:	210e      	movs	r1, #14
 8002060:	2002      	movs	r0, #2
 8002062:	f7fe fe77 	bl	8000d54 <GPIO_u8SetPinOutputSpeed>

	GPIO_u8SetGPIOPinMode			(GPIO_PORTB, GPIO_PIN15, GPIO_MODER_ALTERNATE);
 8002066:	2202      	movs	r2, #2
 8002068:	210f      	movs	r1, #15
 800206a:	2002      	movs	r0, #2
 800206c:	f7fe fa72 	bl	8000554 <GPIO_u8SetGPIOPinMode>
	GPIO_voidSetAlternativeFunction	(GPIO_PORTB, GPIO_PIN15, AF5); // SPI2 MOSI
 8002070:	2205      	movs	r2, #5
 8002072:	210f      	movs	r1, #15
 8002074:	2002      	movs	r0, #2
 8002076:	f7fe fd83 	bl	8000b80 <GPIO_voidSetAlternativeFunction>
	GPIO_u8SetPinOutputSpeed		(GPIO_PORTB, GPIO_PIN15, Very_High_Speed);
 800207a:	220b      	movs	r2, #11
 800207c:	210f      	movs	r1, #15
 800207e:	2002      	movs	r0, #2
 8002080:	f7fe fe68 	bl	8000d54 <GPIO_u8SetPinOutputSpeed>

	/** Initialize SPI2 **/
	SPI_u8SlaveMode (SPI2, SPI_DisSoftSlaveManag, SPI_SelectSlave);
 8002084:	2201      	movs	r2, #1
 8002086:	2100      	movs	r1, #0
 8002088:	4836      	ldr	r0, [pc, #216]	; (8002164 <main+0x1e8>)
 800208a:	f7ff f9d2 	bl	8001432 <SPI_u8SlaveMode>
	SPI_u8Initialization(SPI2, SPI_LeadingEdge,
 800208e:	2301      	movs	r3, #1
 8002090:	9302      	str	r3, [sp, #8]
 8002092:	2300      	movs	r3, #0
 8002094:	9301      	str	r3, [sp, #4]
 8002096:	2300      	movs	r3, #0
 8002098:	9300      	str	r3, [sp, #0]
 800209a:	2300      	movs	r3, #0
 800209c:	2200      	movs	r2, #0
 800209e:	2100      	movs	r1, #0
 80020a0:	4830      	ldr	r0, [pc, #192]	; (8002164 <main+0x1e8>)
 80020a2:	f7ff f92f 	bl	8001304 <SPI_u8Initialization>
							   SPI_MSBTrans,
							   SPI_Data8Bits,
							   SPI_Enable);

	/** Initialize DHT11 **/
	DHT11_voidInitialize();
 80020a6:	f7fe f89b 	bl	80001e0 <DHT11_voidInitialize>

	/********** Create the Tasks **********/
	// Fire System Has The Highest Priority
	xTaskCreate	(FireSensing, NULL, 100, NULL, 7, NULL);
 80020aa:	2300      	movs	r3, #0
 80020ac:	9301      	str	r3, [sp, #4]
 80020ae:	2307      	movs	r3, #7
 80020b0:	9300      	str	r3, [sp, #0]
 80020b2:	2300      	movs	r3, #0
 80020b4:	2264      	movs	r2, #100	; 0x64
 80020b6:	2100      	movs	r1, #0
 80020b8:	482b      	ldr	r0, [pc, #172]	; (8002168 <main+0x1ec>)
 80020ba:	f000 fd45 	bl	8002b48 <xTaskCreate>
	xTaskCreate	(FireAction,  NULL, 100, NULL, 6, NULL);
 80020be:	2300      	movs	r3, #0
 80020c0:	9301      	str	r3, [sp, #4]
 80020c2:	2306      	movs	r3, #6
 80020c4:	9300      	str	r3, [sp, #0]
 80020c6:	2300      	movs	r3, #0
 80020c8:	2264      	movs	r2, #100	; 0x64
 80020ca:	2100      	movs	r1, #0
 80020cc:	4827      	ldr	r0, [pc, #156]	; (800216c <main+0x1f0>)
 80020ce:	f000 fd3b 	bl	8002b48 <xTaskCreate>

	// Then People Detection
	xTaskCreate	(DoorSystemSensing, NULL, 100, NULL, 5, NULL);
 80020d2:	2300      	movs	r3, #0
 80020d4:	9301      	str	r3, [sp, #4]
 80020d6:	2305      	movs	r3, #5
 80020d8:	9300      	str	r3, [sp, #0]
 80020da:	2300      	movs	r3, #0
 80020dc:	2264      	movs	r2, #100	; 0x64
 80020de:	2100      	movs	r1, #0
 80020e0:	4823      	ldr	r0, [pc, #140]	; (8002170 <main+0x1f4>)
 80020e2:	f000 fd31 	bl	8002b48 <xTaskCreate>
	xTaskCreate	(PIRSensing, 	    NULL, 100, NULL, 5, NULL);
 80020e6:	2300      	movs	r3, #0
 80020e8:	9301      	str	r3, [sp, #4]
 80020ea:	2305      	movs	r3, #5
 80020ec:	9300      	str	r3, [sp, #0]
 80020ee:	2300      	movs	r3, #0
 80020f0:	2264      	movs	r2, #100	; 0x64
 80020f2:	2100      	movs	r1, #0
 80020f4:	481f      	ldr	r0, [pc, #124]	; (8002174 <main+0x1f8>)
 80020f6:	f000 fd27 	bl	8002b48 <xTaskCreate>

	// Then Door will Take the Desire Action to Open or Close
	xTaskCreate	(DoorSystemAction, NULL, 100, NULL, 4, NULL);
 80020fa:	2300      	movs	r3, #0
 80020fc:	9301      	str	r3, [sp, #4]
 80020fe:	2304      	movs	r3, #4
 8002100:	9300      	str	r3, [sp, #0]
 8002102:	2300      	movs	r3, #0
 8002104:	2264      	movs	r2, #100	; 0x64
 8002106:	2100      	movs	r1, #0
 8002108:	481b      	ldr	r0, [pc, #108]	; (8002178 <main+0x1fc>)
 800210a:	f000 fd1d 	bl	8002b48 <xTaskCreate>

	// Then PIR will Take the Desire Action to Turn On the Light or Turn it Off
	xTaskCreate	(PIRAction, NULL, 100, NULL, 4, NULL);
 800210e:	2300      	movs	r3, #0
 8002110:	9301      	str	r3, [sp, #4]
 8002112:	2304      	movs	r3, #4
 8002114:	9300      	str	r3, [sp, #0]
 8002116:	2300      	movs	r3, #0
 8002118:	2264      	movs	r2, #100	; 0x64
 800211a:	2100      	movs	r1, #0
 800211c:	4817      	ldr	r0, [pc, #92]	; (800217c <main+0x200>)
 800211e:	f000 fd13 	bl	8002b48 <xTaskCreate>

	// Then Temperature Sensor will Sense the Temperature of the Train Car to Balance it with The Air Condition
	xTaskCreate	(TempSensing, NULL, 100, NULL, 3, NULL);
 8002122:	2300      	movs	r3, #0
 8002124:	9301      	str	r3, [sp, #4]
 8002126:	2303      	movs	r3, #3
 8002128:	9300      	str	r3, [sp, #0]
 800212a:	2300      	movs	r3, #0
 800212c:	2264      	movs	r2, #100	; 0x64
 800212e:	2100      	movs	r1, #0
 8002130:	4813      	ldr	r0, [pc, #76]	; (8002180 <main+0x204>)
 8002132:	f000 fd09 	bl	8002b48 <xTaskCreate>
	xTaskCreate	(TempAction,  NULL, 100, NULL, 2, NULL);
 8002136:	2300      	movs	r3, #0
 8002138:	9301      	str	r3, [sp, #4]
 800213a:	2302      	movs	r3, #2
 800213c:	9300      	str	r3, [sp, #0]
 800213e:	2300      	movs	r3, #0
 8002140:	2264      	movs	r2, #100	; 0x64
 8002142:	2100      	movs	r1, #0
 8002144:	480f      	ldr	r0, [pc, #60]	; (8002184 <main+0x208>)
 8002146:	f000 fcff 	bl	8002b48 <xTaskCreate>

	// Communicate with the Raspberry Pi
	xTaskCreate	(SendMessege, NULL, 100, NULL, 8, NULL);
 800214a:	2300      	movs	r3, #0
 800214c:	9301      	str	r3, [sp, #4]
 800214e:	2308      	movs	r3, #8
 8002150:	9300      	str	r3, [sp, #0]
 8002152:	2300      	movs	r3, #0
 8002154:	2264      	movs	r2, #100	; 0x64
 8002156:	2100      	movs	r1, #0
 8002158:	480b      	ldr	r0, [pc, #44]	; (8002188 <main+0x20c>)
 800215a:	f000 fcf5 	bl	8002b48 <xTaskCreate>

	/* Start Scheduler */
	vTaskStartScheduler();
 800215e:	f000 fedf 	bl	8002f20 <vTaskStartScheduler>


	while(1)
 8002162:	e7fe      	b.n	8002162 <main+0x1e6>
 8002164:	40003800 	.word	0x40003800
 8002168:	08001cb1 	.word	0x08001cb1
 800216c:	08001ced 	.word	0x08001ced
 8002170:	08001dcd 	.word	0x08001dcd
 8002174:	08001d45 	.word	0x08001d45
 8002178:	08001e01 	.word	0x08001e01
 800217c:	08001d85 	.word	0x08001d85
 8002180:	08001e3d 	.word	0x08001e3d
 8002184:	08001e7d 	.word	0x08001e7d
 8002188:	08001f51 	.word	0x08001f51

0800218c <pxPortInitialiseStack>:
 800218c:	b480      	push	{r7}
 800218e:	b085      	sub	sp, #20
 8002190:	af00      	add	r7, sp, #0
 8002192:	60f8      	str	r0, [r7, #12]
 8002194:	60b9      	str	r1, [r7, #8]
 8002196:	607a      	str	r2, [r7, #4]
 8002198:	68fb      	ldr	r3, [r7, #12]
 800219a:	3b04      	subs	r3, #4
 800219c:	60fb      	str	r3, [r7, #12]
 800219e:	68fb      	ldr	r3, [r7, #12]
 80021a0:	f04f 7280 	mov.w	r2, #16777216	; 0x1000000
 80021a4:	601a      	str	r2, [r3, #0]
 80021a6:	68fb      	ldr	r3, [r7, #12]
 80021a8:	3b04      	subs	r3, #4
 80021aa:	60fb      	str	r3, [r7, #12]
 80021ac:	68bb      	ldr	r3, [r7, #8]
 80021ae:	f023 0201 	bic.w	r2, r3, #1
 80021b2:	68fb      	ldr	r3, [r7, #12]
 80021b4:	601a      	str	r2, [r3, #0]
 80021b6:	68fb      	ldr	r3, [r7, #12]
 80021b8:	3b04      	subs	r3, #4
 80021ba:	60fb      	str	r3, [r7, #12]
 80021bc:	4a0c      	ldr	r2, [pc, #48]	; (80021f0 <pxPortInitialiseStack+0x64>)
 80021be:	68fb      	ldr	r3, [r7, #12]
 80021c0:	601a      	str	r2, [r3, #0]
 80021c2:	68fb      	ldr	r3, [r7, #12]
 80021c4:	3b14      	subs	r3, #20
 80021c6:	60fb      	str	r3, [r7, #12]
 80021c8:	687a      	ldr	r2, [r7, #4]
 80021ca:	68fb      	ldr	r3, [r7, #12]
 80021cc:	601a      	str	r2, [r3, #0]
 80021ce:	68fb      	ldr	r3, [r7, #12]
 80021d0:	3b04      	subs	r3, #4
 80021d2:	60fb      	str	r3, [r7, #12]
 80021d4:	68fb      	ldr	r3, [r7, #12]
 80021d6:	f06f 0202 	mvn.w	r2, #2
 80021da:	601a      	str	r2, [r3, #0]
 80021dc:	68fb      	ldr	r3, [r7, #12]
 80021de:	3b20      	subs	r3, #32
 80021e0:	60fb      	str	r3, [r7, #12]
 80021e2:	68fb      	ldr	r3, [r7, #12]
 80021e4:	4618      	mov	r0, r3
 80021e6:	3714      	adds	r7, #20
 80021e8:	46bd      	mov	sp, r7
 80021ea:	f85d 7b04 	ldr.w	r7, [sp], #4
 80021ee:	4770      	bx	lr
 80021f0:	080021f5 	.word	0x080021f5

080021f4 <prvTaskExitError>:
 80021f4:	b480      	push	{r7}
 80021f6:	b085      	sub	sp, #20
 80021f8:	af00      	add	r7, sp, #0
 80021fa:	2300      	movs	r3, #0
 80021fc:	607b      	str	r3, [r7, #4]
 80021fe:	4b12      	ldr	r3, [pc, #72]	; (8002248 <prvTaskExitError+0x54>)
 8002200:	681b      	ldr	r3, [r3, #0]
 8002202:	f1b3 3fff 	cmp.w	r3, #4294967295
 8002206:	d00a      	beq.n	800221e <prvTaskExitError+0x2a>
 8002208:	f04f 0350 	mov.w	r3, #80	; 0x50
 800220c:	f383 8811 	msr	BASEPRI, r3
 8002210:	f3bf 8f6f 	isb	sy
 8002214:	f3bf 8f4f 	dsb	sy
 8002218:	60fb      	str	r3, [r7, #12]
 800221a:	bf00      	nop
 800221c:	e7fe      	b.n	800221c <prvTaskExitError+0x28>
 800221e:	f04f 0350 	mov.w	r3, #80	; 0x50
 8002222:	f383 8811 	msr	BASEPRI, r3
 8002226:	f3bf 8f6f 	isb	sy
 800222a:	f3bf 8f4f 	dsb	sy
 800222e:	60bb      	str	r3, [r7, #8]
 8002230:	bf00      	nop
 8002232:	bf00      	nop
 8002234:	687b      	ldr	r3, [r7, #4]
 8002236:	2b00      	cmp	r3, #0
 8002238:	d0fc      	beq.n	8002234 <prvTaskExitError+0x40>
 800223a:	bf00      	nop
 800223c:	bf00      	nop
 800223e:	3714      	adds	r7, #20
 8002240:	46bd      	mov	sp, r7
 8002242:	f85d 7b04 	ldr.w	r7, [sp], #4
 8002246:	4770      	bx	lr
 8002248:	20000008 	.word	0x20000008
 800224c:	00000000 	.word	0x00000000

08002250 <SVC_Handler>:
 8002250:	4b07      	ldr	r3, [pc, #28]	; (8002270 <pxCurrentTCBConst2>)
 8002252:	6819      	ldr	r1, [r3, #0]
 8002254:	6808      	ldr	r0, [r1, #0]
 8002256:	e8b0 4ff0 	ldmia.w	r0!, {r4, r5, r6, r7, r8, r9, sl, fp, lr}
 800225a:	f380 8809 	msr	PSP, r0
 800225e:	f3bf 8f6f 	isb	sy
 8002262:	f04f 0000 	mov.w	r0, #0
 8002266:	f380 8811 	msr	BASEPRI, r0
 800226a:	4770      	bx	lr
 800226c:	f3af 8000 	nop.w

08002270 <pxCurrentTCBConst2>:
 8002270:	2000c8d0 	.word	0x2000c8d0
 8002274:	bf00      	nop
 8002276:	bf00      	nop

08002278 <prvPortStartFirstTask>:
 8002278:	4808      	ldr	r0, [pc, #32]	; (800229c <prvPortStartFirstTask+0x24>)
 800227a:	6800      	ldr	r0, [r0, #0]
 800227c:	6800      	ldr	r0, [r0, #0]
 800227e:	f380 8808 	msr	MSP, r0
 8002282:	f04f 0000 	mov.w	r0, #0
 8002286:	f380 8814 	msr	CONTROL, r0
 800228a:	b662      	cpsie	i
 800228c:	b661      	cpsie	f
 800228e:	f3bf 8f4f 	dsb	sy
 8002292:	f3bf 8f6f 	isb	sy
 8002296:	df00      	svc	0
 8002298:	bf00      	nop
 800229a:	0000      	.short	0x0000
 800229c:	e000ed08 	.word	0xe000ed08
 80022a0:	bf00      	nop
 80022a2:	bf00      	nop

080022a4 <xPortStartScheduler>:
 80022a4:	b580      	push	{r7, lr}
 80022a6:	b086      	sub	sp, #24
 80022a8:	af00      	add	r7, sp, #0
 80022aa:	4b46      	ldr	r3, [pc, #280]	; (80023c4 <xPortStartScheduler+0x120>)
 80022ac:	681b      	ldr	r3, [r3, #0]
 80022ae:	4a46      	ldr	r2, [pc, #280]	; (80023c8 <xPortStartScheduler+0x124>)
 80022b0:	4293      	cmp	r3, r2
 80022b2:	d10a      	bne.n	80022ca <xPortStartScheduler+0x26>
 80022b4:	f04f 0350 	mov.w	r3, #80	; 0x50
 80022b8:	f383 8811 	msr	BASEPRI, r3
 80022bc:	f3bf 8f6f 	isb	sy
 80022c0:	f3bf 8f4f 	dsb	sy
 80022c4:	613b      	str	r3, [r7, #16]
 80022c6:	bf00      	nop
 80022c8:	e7fe      	b.n	80022c8 <xPortStartScheduler+0x24>
 80022ca:	4b3e      	ldr	r3, [pc, #248]	; (80023c4 <xPortStartScheduler+0x120>)
 80022cc:	681b      	ldr	r3, [r3, #0]
 80022ce:	4a3f      	ldr	r2, [pc, #252]	; (80023cc <xPortStartScheduler+0x128>)
 80022d0:	4293      	cmp	r3, r2
 80022d2:	d10a      	bne.n	80022ea <xPortStartScheduler+0x46>
 80022d4:	f04f 0350 	mov.w	r3, #80	; 0x50
 80022d8:	f383 8811 	msr	BASEPRI, r3
 80022dc:	f3bf 8f6f 	isb	sy
 80022e0:	f3bf 8f4f 	dsb	sy
 80022e4:	60fb      	str	r3, [r7, #12]
 80022e6:	bf00      	nop
 80022e8:	e7fe      	b.n	80022e8 <xPortStartScheduler+0x44>
 80022ea:	4b39      	ldr	r3, [pc, #228]	; (80023d0 <xPortStartScheduler+0x12c>)
 80022ec:	617b      	str	r3, [r7, #20]
 80022ee:	697b      	ldr	r3, [r7, #20]
 80022f0:	781b      	ldrb	r3, [r3, #0]
 80022f2:	b2db      	uxtb	r3, r3
 80022f4:	607b      	str	r3, [r7, #4]
 80022f6:	697b      	ldr	r3, [r7, #20]
 80022f8:	22ff      	movs	r2, #255	; 0xff
 80022fa:	701a      	strb	r2, [r3, #0]
 80022fc:	697b      	ldr	r3, [r7, #20]
 80022fe:	781b      	ldrb	r3, [r3, #0]
 8002300:	b2db      	uxtb	r3, r3
 8002302:	70fb      	strb	r3, [r7, #3]
 8002304:	78fb      	ldrb	r3, [r7, #3]
 8002306:	b2db      	uxtb	r3, r3
 8002308:	f003 0350 	and.w	r3, r3, #80	; 0x50
 800230c:	b2da      	uxtb	r2, r3
 800230e:	4b31      	ldr	r3, [pc, #196]	; (80023d4 <xPortStartScheduler+0x130>)
 8002310:	701a      	strb	r2, [r3, #0]
 8002312:	4b31      	ldr	r3, [pc, #196]	; (80023d8 <xPortStartScheduler+0x134>)
 8002314:	2207      	movs	r2, #7
 8002316:	601a      	str	r2, [r3, #0]
 8002318:	e009      	b.n	800232e <xPortStartScheduler+0x8a>
 800231a:	4b2f      	ldr	r3, [pc, #188]	; (80023d8 <xPortStartScheduler+0x134>)
 800231c:	681b      	ldr	r3, [r3, #0]
 800231e:	3b01      	subs	r3, #1
 8002320:	4a2d      	ldr	r2, [pc, #180]	; (80023d8 <xPortStartScheduler+0x134>)
 8002322:	6013      	str	r3, [r2, #0]
 8002324:	78fb      	ldrb	r3, [r7, #3]
 8002326:	b2db      	uxtb	r3, r3
 8002328:	005b      	lsls	r3, r3, #1
 800232a:	b2db      	uxtb	r3, r3
 800232c:	70fb      	strb	r3, [r7, #3]
 800232e:	78fb      	ldrb	r3, [r7, #3]
 8002330:	b2db      	uxtb	r3, r3
 8002332:	f003 0380 	and.w	r3, r3, #128	; 0x80
 8002336:	2b80      	cmp	r3, #128	; 0x80
 8002338:	d0ef      	beq.n	800231a <xPortStartScheduler+0x76>
 800233a:	4b27      	ldr	r3, [pc, #156]	; (80023d8 <xPortStartScheduler+0x134>)
 800233c:	681b      	ldr	r3, [r3, #0]
 800233e:	f1c3 0307 	rsb	r3, r3, #7
 8002342:	2b04      	cmp	r3, #4
 8002344:	d00a      	beq.n	800235c <xPortStartScheduler+0xb8>
 8002346:	f04f 0350 	mov.w	r3, #80	; 0x50
 800234a:	f383 8811 	msr	BASEPRI, r3
 800234e:	f3bf 8f6f 	isb	sy
 8002352:	f3bf 8f4f 	dsb	sy
 8002356:	60bb      	str	r3, [r7, #8]
 8002358:	bf00      	nop
 800235a:	e7fe      	b.n	800235a <xPortStartScheduler+0xb6>
 800235c:	4b1e      	ldr	r3, [pc, #120]	; (80023d8 <xPortStartScheduler+0x134>)
 800235e:	681b      	ldr	r3, [r3, #0]
 8002360:	021b      	lsls	r3, r3, #8
 8002362:	4a1d      	ldr	r2, [pc, #116]	; (80023d8 <xPortStartScheduler+0x134>)
 8002364:	6013      	str	r3, [r2, #0]
 8002366:	4b1c      	ldr	r3, [pc, #112]	; (80023d8 <xPortStartScheduler+0x134>)
 8002368:	681b      	ldr	r3, [r3, #0]
 800236a:	f403 63e0 	and.w	r3, r3, #1792	; 0x700
 800236e:	4a1a      	ldr	r2, [pc, #104]	; (80023d8 <xPortStartScheduler+0x134>)
 8002370:	6013      	str	r3, [r2, #0]
 8002372:	687b      	ldr	r3, [r7, #4]
 8002374:	b2da      	uxtb	r2, r3
 8002376:	697b      	ldr	r3, [r7, #20]
 8002378:	701a      	strb	r2, [r3, #0]
 800237a:	4b18      	ldr	r3, [pc, #96]	; (80023dc <xPortStartScheduler+0x138>)
 800237c:	681b      	ldr	r3, [r3, #0]
 800237e:	4a17      	ldr	r2, [pc, #92]	; (80023dc <xPortStartScheduler+0x138>)
 8002380:	f443 0370 	orr.w	r3, r3, #15728640	; 0xf00000
 8002384:	6013      	str	r3, [r2, #0]
 8002386:	4b15      	ldr	r3, [pc, #84]	; (80023dc <xPortStartScheduler+0x138>)
 8002388:	681b      	ldr	r3, [r3, #0]
 800238a:	4a14      	ldr	r2, [pc, #80]	; (80023dc <xPortStartScheduler+0x138>)
 800238c:	f043 4370 	orr.w	r3, r3, #4026531840	; 0xf0000000
 8002390:	6013      	str	r3, [r2, #0]
 8002392:	f000 f8db 	bl	800254c <vPortSetupTimerInterrupt>
 8002396:	4b12      	ldr	r3, [pc, #72]	; (80023e0 <xPortStartScheduler+0x13c>)
 8002398:	2200      	movs	r2, #0
 800239a:	601a      	str	r2, [r3, #0]
 800239c:	f000 f8f0 	bl	8002580 <vPortEnableVFP>
 80023a0:	4b10      	ldr	r3, [pc, #64]	; (80023e4 <xPortStartScheduler+0x140>)
 80023a2:	681b      	ldr	r3, [r3, #0]
 80023a4:	4a0f      	ldr	r2, [pc, #60]	; (80023e4 <xPortStartScheduler+0x140>)
 80023a6:	f043 4340 	orr.w	r3, r3, #3221225472	; 0xc0000000
 80023aa:	6013      	str	r3, [r2, #0]
 80023ac:	f7ff ff64 	bl	8002278 <prvPortStartFirstTask>
 80023b0:	f001 f808 	bl	80033c4 <vTaskSwitchContext>
 80023b4:	f7ff ff1e 	bl	80021f4 <prvTaskExitError>
 80023b8:	2300      	movs	r3, #0
 80023ba:	4618      	mov	r0, r3
 80023bc:	3718      	adds	r7, #24
 80023be:	46bd      	mov	sp, r7
 80023c0:	bd80      	pop	{r7, pc}
 80023c2:	bf00      	nop
 80023c4:	e000ed00 	.word	0xe000ed00
 80023c8:	410fc271 	.word	0x410fc271
 80023cc:	410fc270 	.word	0x410fc270
 80023d0:	e000e400 	.word	0xe000e400
 80023d4:	2000c88a 	.word	0x2000c88a
 80023d8:	2000c88c 	.word	0x2000c88c
 80023dc:	e000ed20 	.word	0xe000ed20
 80023e0:	20000008 	.word	0x20000008
 80023e4:	e000ef34 	.word	0xe000ef34

080023e8 <vPortEnterCritical>:
 80023e8:	b480      	push	{r7}
 80023ea:	b083      	sub	sp, #12
 80023ec:	af00      	add	r7, sp, #0
 80023ee:	f04f 0350 	mov.w	r3, #80	; 0x50
 80023f2:	f383 8811 	msr	BASEPRI, r3
 80023f6:	f3bf 8f6f 	isb	sy
 80023fa:	f3bf 8f4f 	dsb	sy
 80023fe:	607b      	str	r3, [r7, #4]
 8002400:	bf00      	nop
 8002402:	4b0f      	ldr	r3, [pc, #60]	; (8002440 <vPortEnterCritical+0x58>)
 8002404:	681b      	ldr	r3, [r3, #0]
 8002406:	3301      	adds	r3, #1
 8002408:	4a0d      	ldr	r2, [pc, #52]	; (8002440 <vPortEnterCritical+0x58>)
 800240a:	6013      	str	r3, [r2, #0]
 800240c:	4b0c      	ldr	r3, [pc, #48]	; (8002440 <vPortEnterCritical+0x58>)
 800240e:	681b      	ldr	r3, [r3, #0]
 8002410:	2b01      	cmp	r3, #1
 8002412:	d10f      	bne.n	8002434 <vPortEnterCritical+0x4c>
 8002414:	4b0b      	ldr	r3, [pc, #44]	; (8002444 <vPortEnterCritical+0x5c>)
 8002416:	681b      	ldr	r3, [r3, #0]
 8002418:	b2db      	uxtb	r3, r3
 800241a:	2b00      	cmp	r3, #0
 800241c:	d00a      	beq.n	8002434 <vPortEnterCritical+0x4c>
 800241e:	f04f 0350 	mov.w	r3, #80	; 0x50
 8002422:	f383 8811 	msr	BASEPRI, r3
 8002426:	f3bf 8f6f 	isb	sy
 800242a:	f3bf 8f4f 	dsb	sy
 800242e:	603b      	str	r3, [r7, #0]
 8002430:	bf00      	nop
 8002432:	e7fe      	b.n	8002432 <vPortEnterCritical+0x4a>
 8002434:	bf00      	nop
 8002436:	370c      	adds	r7, #12
 8002438:	46bd      	mov	sp, r7
 800243a:	f85d 7b04 	ldr.w	r7, [sp], #4
 800243e:	4770      	bx	lr
 8002440:	20000008 	.word	0x20000008
 8002444:	e000ed04 	.word	0xe000ed04

08002448 <vPortExitCritical>:
 8002448:	b480      	push	{r7}
 800244a:	b083      	sub	sp, #12
 800244c:	af00      	add	r7, sp, #0
 800244e:	4b12      	ldr	r3, [pc, #72]	; (8002498 <vPortExitCritical+0x50>)
 8002450:	681b      	ldr	r3, [r3, #0]
 8002452:	2b00      	cmp	r3, #0
 8002454:	d10a      	bne.n	800246c <vPortExitCritical+0x24>
 8002456:	f04f 0350 	mov.w	r3, #80	; 0x50
 800245a:	f383 8811 	msr	BASEPRI, r3
 800245e:	f3bf 8f6f 	isb	sy
 8002462:	f3bf 8f4f 	dsb	sy
 8002466:	607b      	str	r3, [r7, #4]
 8002468:	bf00      	nop
 800246a:	e7fe      	b.n	800246a <vPortExitCritical+0x22>
 800246c:	4b0a      	ldr	r3, [pc, #40]	; (8002498 <vPortExitCritical+0x50>)
 800246e:	681b      	ldr	r3, [r3, #0]
 8002470:	3b01      	subs	r3, #1
 8002472:	4a09      	ldr	r2, [pc, #36]	; (8002498 <vPortExitCritical+0x50>)
 8002474:	6013      	str	r3, [r2, #0]
 8002476:	4b08      	ldr	r3, [pc, #32]	; (8002498 <vPortExitCritical+0x50>)
 8002478:	681b      	ldr	r3, [r3, #0]
 800247a:	2b00      	cmp	r3, #0
 800247c:	d105      	bne.n	800248a <vPortExitCritical+0x42>
 800247e:	2300      	movs	r3, #0
 8002480:	603b      	str	r3, [r7, #0]
 8002482:	683b      	ldr	r3, [r7, #0]
 8002484:	f383 8811 	msr	BASEPRI, r3
 8002488:	bf00      	nop
 800248a:	bf00      	nop
 800248c:	370c      	adds	r7, #12
 800248e:	46bd      	mov	sp, r7
 8002490:	f85d 7b04 	ldr.w	r7, [sp], #4
 8002494:	4770      	bx	lr
 8002496:	bf00      	nop
 8002498:	20000008 	.word	0x20000008
 800249c:	00000000 	.word	0x00000000

080024a0 <PendSV_Handler>:
 80024a0:	f3ef 8009 	mrs	r0, PSP
 80024a4:	f3bf 8f6f 	isb	sy
 80024a8:	4b15      	ldr	r3, [pc, #84]	; (8002500 <pxCurrentTCBConst>)
 80024aa:	681a      	ldr	r2, [r3, #0]
 80024ac:	f01e 0f10 	tst.w	lr, #16
 80024b0:	bf08      	it	eq
 80024b2:	ed20 8a10 	vstmdbeq	r0!, {s16-s31}
 80024b6:	e920 4ff0 	stmdb	r0!, {r4, r5, r6, r7, r8, r9, sl, fp, lr}
 80024ba:	6010      	str	r0, [r2, #0]
 80024bc:	e92d 0009 	stmdb	sp!, {r0, r3}
 80024c0:	f04f 0050 	mov.w	r0, #80	; 0x50
 80024c4:	f380 8811 	msr	BASEPRI, r0
 80024c8:	f3bf 8f4f 	dsb	sy
 80024cc:	f3bf 8f6f 	isb	sy
 80024d0:	f000 ff78 	bl	80033c4 <vTaskSwitchContext>
 80024d4:	f04f 0000 	mov.w	r0, #0
 80024d8:	f380 8811 	msr	BASEPRI, r0
 80024dc:	bc09      	pop	{r0, r3}
 80024de:	6819      	ldr	r1, [r3, #0]
 80024e0:	6808      	ldr	r0, [r1, #0]
 80024e2:	e8b0 4ff0 	ldmia.w	r0!, {r4, r5, r6, r7, r8, r9, sl, fp, lr}
 80024e6:	f01e 0f10 	tst.w	lr, #16
 80024ea:	bf08      	it	eq
 80024ec:	ecb0 8a10 	vldmiaeq	r0!, {s16-s31}
 80024f0:	f380 8809 	msr	PSP, r0
 80024f4:	f3bf 8f6f 	isb	sy
 80024f8:	4770      	bx	lr
 80024fa:	bf00      	nop
 80024fc:	f3af 8000 	nop.w

08002500 <pxCurrentTCBConst>:
 8002500:	2000c8d0 	.word	0x2000c8d0
 8002504:	bf00      	nop
 8002506:	bf00      	nop

08002508 <SysTick_Handler>:
 8002508:	b580      	push	{r7, lr}
 800250a:	b082      	sub	sp, #8
 800250c:	af00      	add	r7, sp, #0
 800250e:	f04f 0350 	mov.w	r3, #80	; 0x50
 8002512:	f383 8811 	msr	BASEPRI, r3
 8002516:	f3bf 8f6f 	isb	sy
 800251a:	f3bf 8f4f 	dsb	sy
 800251e:	607b      	str	r3, [r7, #4]
 8002520:	bf00      	nop
 8002522:	f000 fe5b 	bl	80031dc <xTaskIncrementTick>
 8002526:	4603      	mov	r3, r0
 8002528:	2b00      	cmp	r3, #0
 800252a:	d003      	beq.n	8002534 <SysTick_Handler+0x2c>
 800252c:	4b06      	ldr	r3, [pc, #24]	; (8002548 <SysTick_Handler+0x40>)
 800252e:	f04f 5280 	mov.w	r2, #268435456	; 0x10000000
 8002532:	601a      	str	r2, [r3, #0]
 8002534:	2300      	movs	r3, #0
 8002536:	603b      	str	r3, [r7, #0]
 8002538:	683b      	ldr	r3, [r7, #0]
 800253a:	f383 8811 	msr	BASEPRI, r3
 800253e:	bf00      	nop
 8002540:	bf00      	nop
 8002542:	3708      	adds	r7, #8
 8002544:	46bd      	mov	sp, r7
 8002546:	bd80      	pop	{r7, pc}
 8002548:	e000ed04 	.word	0xe000ed04

0800254c <vPortSetupTimerInterrupt>:
 800254c:	b480      	push	{r7}
 800254e:	af00      	add	r7, sp, #0
 8002550:	4b08      	ldr	r3, [pc, #32]	; (8002574 <vPortSetupTimerInterrupt+0x28>)
 8002552:	2200      	movs	r2, #0
 8002554:	601a      	str	r2, [r3, #0]
 8002556:	4b08      	ldr	r3, [pc, #32]	; (8002578 <vPortSetupTimerInterrupt+0x2c>)
 8002558:	2200      	movs	r2, #0
 800255a:	601a      	str	r2, [r3, #0]
 800255c:	4b07      	ldr	r3, [pc, #28]	; (800257c <vPortSetupTimerInterrupt+0x30>)
 800255e:	f246 12a7 	movw	r2, #24999	; 0x61a7
 8002562:	601a      	str	r2, [r3, #0]
 8002564:	4b03      	ldr	r3, [pc, #12]	; (8002574 <vPortSetupTimerInterrupt+0x28>)
 8002566:	2207      	movs	r2, #7
 8002568:	601a      	str	r2, [r3, #0]
 800256a:	bf00      	nop
 800256c:	46bd      	mov	sp, r7
 800256e:	f85d 7b04 	ldr.w	r7, [sp], #4
 8002572:	4770      	bx	lr
 8002574:	e000e010 	.word	0xe000e010
 8002578:	e000e018 	.word	0xe000e018
 800257c:	e000e014 	.word	0xe000e014

08002580 <vPortEnableVFP>:
 8002580:	f8df 000c 	ldr.w	r0, [pc, #12]	; 8002590 <vPortEnableVFP+0x10>
 8002584:	6801      	ldr	r1, [r0, #0]
 8002586:	f441 0170 	orr.w	r1, r1, #15728640	; 0xf00000
 800258a:	6001      	str	r1, [r0, #0]
 800258c:	4770      	bx	lr
 800258e:	0000      	.short	0x0000
 8002590:	e000ed88 	.word	0xe000ed88
 8002594:	bf00      	nop
 8002596:	bf00      	nop

08002598 <xQueueGenericReset>:
 8002598:	b580      	push	{r7, lr}
 800259a:	b086      	sub	sp, #24
 800259c:	af00      	add	r7, sp, #0
 800259e:	6078      	str	r0, [r7, #4]
 80025a0:	6039      	str	r1, [r7, #0]
 80025a2:	2301      	movs	r3, #1
 80025a4:	617b      	str	r3, [r7, #20]
 80025a6:	687b      	ldr	r3, [r7, #4]
 80025a8:	613b      	str	r3, [r7, #16]
 80025aa:	693b      	ldr	r3, [r7, #16]
 80025ac:	2b00      	cmp	r3, #0
 80025ae:	d10a      	bne.n	80025c6 <xQueueGenericReset+0x2e>
 80025b0:	f04f 0350 	mov.w	r3, #80	; 0x50
 80025b4:	f383 8811 	msr	BASEPRI, r3
 80025b8:	f3bf 8f6f 	isb	sy
 80025bc:	f3bf 8f4f 	dsb	sy
 80025c0:	60fb      	str	r3, [r7, #12]
 80025c2:	bf00      	nop
 80025c4:	e7fe      	b.n	80025c4 <xQueueGenericReset+0x2c>
 80025c6:	693b      	ldr	r3, [r7, #16]
 80025c8:	2b00      	cmp	r3, #0
 80025ca:	d052      	beq.n	8002672 <xQueueGenericReset+0xda>
 80025cc:	693b      	ldr	r3, [r7, #16]
 80025ce:	6bdb      	ldr	r3, [r3, #60]	; 0x3c
 80025d0:	2b00      	cmp	r3, #0
 80025d2:	d04e      	beq.n	8002672 <xQueueGenericReset+0xda>
 80025d4:	693b      	ldr	r3, [r7, #16]
 80025d6:	6c1a      	ldr	r2, [r3, #64]	; 0x40
 80025d8:	693b      	ldr	r3, [r7, #16]
 80025da:	6bdb      	ldr	r3, [r3, #60]	; 0x3c
 80025dc:	2100      	movs	r1, #0
 80025de:	fba3 2302 	umull	r2, r3, r3, r2
 80025e2:	2b00      	cmp	r3, #0
 80025e4:	d000      	beq.n	80025e8 <xQueueGenericReset+0x50>
 80025e6:	2101      	movs	r1, #1
 80025e8:	460b      	mov	r3, r1
 80025ea:	2b00      	cmp	r3, #0
 80025ec:	d141      	bne.n	8002672 <xQueueGenericReset+0xda>
 80025ee:	f7ff fefb 	bl	80023e8 <vPortEnterCritical>
 80025f2:	693b      	ldr	r3, [r7, #16]
 80025f4:	681a      	ldr	r2, [r3, #0]
 80025f6:	693b      	ldr	r3, [r7, #16]
 80025f8:	6bdb      	ldr	r3, [r3, #60]	; 0x3c
 80025fa:	6939      	ldr	r1, [r7, #16]
 80025fc:	6c09      	ldr	r1, [r1, #64]	; 0x40
 80025fe:	fb01 f303 	mul.w	r3, r1, r3
 8002602:	441a      	add	r2, r3
 8002604:	693b      	ldr	r3, [r7, #16]
 8002606:	609a      	str	r2, [r3, #8]
 8002608:	693b      	ldr	r3, [r7, #16]
 800260a:	2200      	movs	r2, #0
 800260c:	639a      	str	r2, [r3, #56]	; 0x38
 800260e:	693b      	ldr	r3, [r7, #16]
 8002610:	681a      	ldr	r2, [r3, #0]
 8002612:	693b      	ldr	r3, [r7, #16]
 8002614:	605a      	str	r2, [r3, #4]
 8002616:	693b      	ldr	r3, [r7, #16]
 8002618:	681a      	ldr	r2, [r3, #0]
 800261a:	693b      	ldr	r3, [r7, #16]
 800261c:	6bdb      	ldr	r3, [r3, #60]	; 0x3c
 800261e:	3b01      	subs	r3, #1
 8002620:	6939      	ldr	r1, [r7, #16]
 8002622:	6c09      	ldr	r1, [r1, #64]	; 0x40
 8002624:	fb01 f303 	mul.w	r3, r1, r3
 8002628:	441a      	add	r2, r3
 800262a:	693b      	ldr	r3, [r7, #16]
 800262c:	60da      	str	r2, [r3, #12]
 800262e:	693b      	ldr	r3, [r7, #16]
 8002630:	22ff      	movs	r2, #255	; 0xff
 8002632:	f883 2044 	strb.w	r2, [r3, #68]	; 0x44
 8002636:	693b      	ldr	r3, [r7, #16]
 8002638:	22ff      	movs	r2, #255	; 0xff
 800263a:	f883 2045 	strb.w	r2, [r3, #69]	; 0x45
 800263e:	683b      	ldr	r3, [r7, #0]
 8002640:	2b00      	cmp	r3, #0
 8002642:	d109      	bne.n	8002658 <xQueueGenericReset+0xc0>
 8002644:	693b      	ldr	r3, [r7, #16]
 8002646:	691b      	ldr	r3, [r3, #16]
 8002648:	2b00      	cmp	r3, #0
 800264a:	d00f      	beq.n	800266c <xQueueGenericReset+0xd4>
 800264c:	693b      	ldr	r3, [r7, #16]
 800264e:	3310      	adds	r3, #16
 8002650:	4618      	mov	r0, r3
 8002652:	f000 ff7d 	bl	8003550 <xTaskRemoveFromEventList>
 8002656:	e009      	b.n	800266c <xQueueGenericReset+0xd4>
 8002658:	693b      	ldr	r3, [r7, #16]
 800265a:	3310      	adds	r3, #16
 800265c:	4618      	mov	r0, r3
 800265e:	f7ff fa97 	bl	8001b90 <vListInitialise>
 8002662:	693b      	ldr	r3, [r7, #16]
 8002664:	3324      	adds	r3, #36	; 0x24
 8002666:	4618      	mov	r0, r3
 8002668:	f7ff fa92 	bl	8001b90 <vListInitialise>
 800266c:	f7ff feec 	bl	8002448 <vPortExitCritical>
 8002670:	e001      	b.n	8002676 <xQueueGenericReset+0xde>
 8002672:	2300      	movs	r3, #0
 8002674:	617b      	str	r3, [r7, #20]
 8002676:	697b      	ldr	r3, [r7, #20]
 8002678:	2b00      	cmp	r3, #0
 800267a:	d10a      	bne.n	8002692 <xQueueGenericReset+0xfa>
 800267c:	f04f 0350 	mov.w	r3, #80	; 0x50
 8002680:	f383 8811 	msr	BASEPRI, r3
 8002684:	f3bf 8f6f 	isb	sy
 8002688:	f3bf 8f4f 	dsb	sy
 800268c:	60bb      	str	r3, [r7, #8]
 800268e:	bf00      	nop
 8002690:	e7fe      	b.n	8002690 <xQueueGenericReset+0xf8>
 8002692:	697b      	ldr	r3, [r7, #20]
 8002694:	4618      	mov	r0, r3
 8002696:	3718      	adds	r7, #24
 8002698:	46bd      	mov	sp, r7
 800269a:	bd80      	pop	{r7, pc}

0800269c <xQueueGenericCreate>:
 800269c:	b580      	push	{r7, lr}
 800269e:	b08a      	sub	sp, #40	; 0x28
 80026a0:	af02      	add	r7, sp, #8
 80026a2:	60f8      	str	r0, [r7, #12]
 80026a4:	60b9      	str	r1, [r7, #8]
 80026a6:	4613      	mov	r3, r2
 80026a8:	71fb      	strb	r3, [r7, #7]
 80026aa:	2300      	movs	r3, #0
 80026ac:	61fb      	str	r3, [r7, #28]
 80026ae:	68fb      	ldr	r3, [r7, #12]
 80026b0:	2b00      	cmp	r3, #0
 80026b2:	d02e      	beq.n	8002712 <xQueueGenericCreate+0x76>
 80026b4:	2100      	movs	r1, #0
 80026b6:	68ba      	ldr	r2, [r7, #8]
 80026b8:	68fb      	ldr	r3, [r7, #12]
 80026ba:	fba3 2302 	umull	r2, r3, r3, r2
 80026be:	2b00      	cmp	r3, #0
 80026c0:	d000      	beq.n	80026c4 <xQueueGenericCreate+0x28>
 80026c2:	2101      	movs	r1, #1
 80026c4:	460b      	mov	r3, r1
 80026c6:	2b00      	cmp	r3, #0
 80026c8:	d123      	bne.n	8002712 <xQueueGenericCreate+0x76>
 80026ca:	68fb      	ldr	r3, [r7, #12]
 80026cc:	68ba      	ldr	r2, [r7, #8]
 80026ce:	fb02 f303 	mul.w	r3, r2, r3
 80026d2:	f113 0f51 	cmn.w	r3, #81	; 0x51
 80026d6:	d81c      	bhi.n	8002712 <xQueueGenericCreate+0x76>
 80026d8:	68fb      	ldr	r3, [r7, #12]
 80026da:	68ba      	ldr	r2, [r7, #8]
 80026dc:	fb02 f303 	mul.w	r3, r2, r3
 80026e0:	61bb      	str	r3, [r7, #24]
 80026e2:	69bb      	ldr	r3, [r7, #24]
 80026e4:	3350      	adds	r3, #80	; 0x50
 80026e6:	4618      	mov	r0, r3
 80026e8:	f7ff f854 	bl	8001794 <pvPortMalloc>
 80026ec:	61f8      	str	r0, [r7, #28]
 80026ee:	69fb      	ldr	r3, [r7, #28]
 80026f0:	2b00      	cmp	r3, #0
 80026f2:	d01c      	beq.n	800272e <xQueueGenericCreate+0x92>
 80026f4:	69fb      	ldr	r3, [r7, #28]
 80026f6:	617b      	str	r3, [r7, #20]
 80026f8:	697b      	ldr	r3, [r7, #20]
 80026fa:	3350      	adds	r3, #80	; 0x50
 80026fc:	617b      	str	r3, [r7, #20]
 80026fe:	79fa      	ldrb	r2, [r7, #7]
 8002700:	69fb      	ldr	r3, [r7, #28]
 8002702:	9300      	str	r3, [sp, #0]
 8002704:	4613      	mov	r3, r2
 8002706:	697a      	ldr	r2, [r7, #20]
 8002708:	68b9      	ldr	r1, [r7, #8]
 800270a:	68f8      	ldr	r0, [r7, #12]
 800270c:	f000 f814 	bl	8002738 <prvInitialiseNewQueue>
 8002710:	e00d      	b.n	800272e <xQueueGenericCreate+0x92>
 8002712:	69fb      	ldr	r3, [r7, #28]
 8002714:	2b00      	cmp	r3, #0
 8002716:	d10a      	bne.n	800272e <xQueueGenericCreate+0x92>
 8002718:	f04f 0350 	mov.w	r3, #80	; 0x50
 800271c:	f383 8811 	msr	BASEPRI, r3
 8002720:	f3bf 8f6f 	isb	sy
 8002724:	f3bf 8f4f 	dsb	sy
 8002728:	613b      	str	r3, [r7, #16]
 800272a:	bf00      	nop
 800272c:	e7fe      	b.n	800272c <xQueueGenericCreate+0x90>
 800272e:	69fb      	ldr	r3, [r7, #28]
 8002730:	4618      	mov	r0, r3
 8002732:	3720      	adds	r7, #32
 8002734:	46bd      	mov	sp, r7
 8002736:	bd80      	pop	{r7, pc}

08002738 <prvInitialiseNewQueue>:
 8002738:	b580      	push	{r7, lr}
 800273a:	b084      	sub	sp, #16
 800273c:	af00      	add	r7, sp, #0
 800273e:	60f8      	str	r0, [r7, #12]
 8002740:	60b9      	str	r1, [r7, #8]
 8002742:	607a      	str	r2, [r7, #4]
 8002744:	70fb      	strb	r3, [r7, #3]
 8002746:	68bb      	ldr	r3, [r7, #8]
 8002748:	2b00      	cmp	r3, #0
 800274a:	d103      	bne.n	8002754 <prvInitialiseNewQueue+0x1c>
 800274c:	69bb      	ldr	r3, [r7, #24]
 800274e:	69ba      	ldr	r2, [r7, #24]
 8002750:	601a      	str	r2, [r3, #0]
 8002752:	e002      	b.n	800275a <prvInitialiseNewQueue+0x22>
 8002754:	69bb      	ldr	r3, [r7, #24]
 8002756:	687a      	ldr	r2, [r7, #4]
 8002758:	601a      	str	r2, [r3, #0]
 800275a:	69bb      	ldr	r3, [r7, #24]
 800275c:	68fa      	ldr	r2, [r7, #12]
 800275e:	63da      	str	r2, [r3, #60]	; 0x3c
 8002760:	69bb      	ldr	r3, [r7, #24]
 8002762:	68ba      	ldr	r2, [r7, #8]
 8002764:	641a      	str	r2, [r3, #64]	; 0x40
 8002766:	2101      	movs	r1, #1
 8002768:	69b8      	ldr	r0, [r7, #24]
 800276a:	f7ff ff15 	bl	8002598 <xQueueGenericReset>
 800276e:	69bb      	ldr	r3, [r7, #24]
 8002770:	78fa      	ldrb	r2, [r7, #3]
 8002772:	f883 204c 	strb.w	r2, [r3, #76]	; 0x4c
 8002776:	bf00      	nop
 8002778:	3710      	adds	r7, #16
 800277a:	46bd      	mov	sp, r7
 800277c:	bd80      	pop	{r7, pc}
	...

08002780 <xQueueReceive>:
 8002780:	b580      	push	{r7, lr}
 8002782:	b08c      	sub	sp, #48	; 0x30
 8002784:	af00      	add	r7, sp, #0
 8002786:	60f8      	str	r0, [r7, #12]
 8002788:	60b9      	str	r1, [r7, #8]
 800278a:	607a      	str	r2, [r7, #4]
 800278c:	2300      	movs	r3, #0
 800278e:	62fb      	str	r3, [r7, #44]	; 0x2c
 8002790:	68fb      	ldr	r3, [r7, #12]
 8002792:	62bb      	str	r3, [r7, #40]	; 0x28
 8002794:	6abb      	ldr	r3, [r7, #40]	; 0x28
 8002796:	2b00      	cmp	r3, #0
 8002798:	d10a      	bne.n	80027b0 <xQueueReceive+0x30>
 800279a:	f04f 0350 	mov.w	r3, #80	; 0x50
 800279e:	f383 8811 	msr	BASEPRI, r3
 80027a2:	f3bf 8f6f 	isb	sy
 80027a6:	f3bf 8f4f 	dsb	sy
 80027aa:	623b      	str	r3, [r7, #32]
 80027ac:	bf00      	nop
 80027ae:	e7fe      	b.n	80027ae <xQueueReceive+0x2e>
 80027b0:	68bb      	ldr	r3, [r7, #8]
 80027b2:	2b00      	cmp	r3, #0
 80027b4:	d103      	bne.n	80027be <xQueueReceive+0x3e>
 80027b6:	6abb      	ldr	r3, [r7, #40]	; 0x28
 80027b8:	6c1b      	ldr	r3, [r3, #64]	; 0x40
 80027ba:	2b00      	cmp	r3, #0
 80027bc:	d101      	bne.n	80027c2 <xQueueReceive+0x42>
 80027be:	2301      	movs	r3, #1
 80027c0:	e000      	b.n	80027c4 <xQueueReceive+0x44>
 80027c2:	2300      	movs	r3, #0
 80027c4:	2b00      	cmp	r3, #0
 80027c6:	d10a      	bne.n	80027de <xQueueReceive+0x5e>
 80027c8:	f04f 0350 	mov.w	r3, #80	; 0x50
 80027cc:	f383 8811 	msr	BASEPRI, r3
 80027d0:	f3bf 8f6f 	isb	sy
 80027d4:	f3bf 8f4f 	dsb	sy
 80027d8:	61fb      	str	r3, [r7, #28]
 80027da:	bf00      	nop
 80027dc:	e7fe      	b.n	80027dc <xQueueReceive+0x5c>
 80027de:	f001 f8c1 	bl	8003964 <xTaskGetSchedulerState>
 80027e2:	4603      	mov	r3, r0
 80027e4:	2b00      	cmp	r3, #0
 80027e6:	d102      	bne.n	80027ee <xQueueReceive+0x6e>
 80027e8:	687b      	ldr	r3, [r7, #4]
 80027ea:	2b00      	cmp	r3, #0
 80027ec:	d101      	bne.n	80027f2 <xQueueReceive+0x72>
 80027ee:	2301      	movs	r3, #1
 80027f0:	e000      	b.n	80027f4 <xQueueReceive+0x74>
 80027f2:	2300      	movs	r3, #0
 80027f4:	2b00      	cmp	r3, #0
 80027f6:	d10a      	bne.n	800280e <xQueueReceive+0x8e>
 80027f8:	f04f 0350 	mov.w	r3, #80	; 0x50
 80027fc:	f383 8811 	msr	BASEPRI, r3
 8002800:	f3bf 8f6f 	isb	sy
 8002804:	f3bf 8f4f 	dsb	sy
 8002808:	61bb      	str	r3, [r7, #24]
 800280a:	bf00      	nop
 800280c:	e7fe      	b.n	800280c <xQueueReceive+0x8c>
 800280e:	f7ff fdeb 	bl	80023e8 <vPortEnterCritical>
 8002812:	6abb      	ldr	r3, [r7, #40]	; 0x28
 8002814:	6b9b      	ldr	r3, [r3, #56]	; 0x38
 8002816:	627b      	str	r3, [r7, #36]	; 0x24
 8002818:	6a7b      	ldr	r3, [r7, #36]	; 0x24
 800281a:	2b00      	cmp	r3, #0
 800281c:	d014      	beq.n	8002848 <xQueueReceive+0xc8>
 800281e:	68b9      	ldr	r1, [r7, #8]
 8002820:	6ab8      	ldr	r0, [r7, #40]	; 0x28
 8002822:	f000 f881 	bl	8002928 <prvCopyDataFromQueue>
 8002826:	6a7b      	ldr	r3, [r7, #36]	; 0x24
 8002828:	1e5a      	subs	r2, r3, #1
 800282a:	6abb      	ldr	r3, [r7, #40]	; 0x28
 800282c:	639a      	str	r2, [r3, #56]	; 0x38
 800282e:	6abb      	ldr	r3, [r7, #40]	; 0x28
 8002830:	691b      	ldr	r3, [r3, #16]
 8002832:	2b00      	cmp	r3, #0
 8002834:	d004      	beq.n	8002840 <xQueueReceive+0xc0>
 8002836:	6abb      	ldr	r3, [r7, #40]	; 0x28
 8002838:	3310      	adds	r3, #16
 800283a:	4618      	mov	r0, r3
 800283c:	f000 fe88 	bl	8003550 <xTaskRemoveFromEventList>
 8002840:	f7ff fe02 	bl	8002448 <vPortExitCritical>
 8002844:	2301      	movs	r3, #1
 8002846:	e069      	b.n	800291c <xQueueReceive+0x19c>
 8002848:	687b      	ldr	r3, [r7, #4]
 800284a:	2b00      	cmp	r3, #0
 800284c:	d103      	bne.n	8002856 <xQueueReceive+0xd6>
 800284e:	f7ff fdfb 	bl	8002448 <vPortExitCritical>
 8002852:	2300      	movs	r3, #0
 8002854:	e062      	b.n	800291c <xQueueReceive+0x19c>
 8002856:	6afb      	ldr	r3, [r7, #44]	; 0x2c
 8002858:	2b00      	cmp	r3, #0
 800285a:	d106      	bne.n	800286a <xQueueReceive+0xea>
 800285c:	f107 0310 	add.w	r3, r7, #16
 8002860:	4618      	mov	r0, r3
 8002862:	f000 ff4b 	bl	80036fc <vTaskInternalSetTimeOutState>
 8002866:	2301      	movs	r3, #1
 8002868:	62fb      	str	r3, [r7, #44]	; 0x2c
 800286a:	f7ff fded 	bl	8002448 <vPortExitCritical>
 800286e:	f000 fba9 	bl	8002fc4 <vTaskSuspendAll>
 8002872:	f7ff fdb9 	bl	80023e8 <vPortEnterCritical>
 8002876:	6abb      	ldr	r3, [r7, #40]	; 0x28
 8002878:	f893 3044 	ldrb.w	r3, [r3, #68]	; 0x44
 800287c:	b25b      	sxtb	r3, r3
 800287e:	f1b3 3fff 	cmp.w	r3, #4294967295
 8002882:	d103      	bne.n	800288c <xQueueReceive+0x10c>
 8002884:	6abb      	ldr	r3, [r7, #40]	; 0x28
 8002886:	2200      	movs	r2, #0
 8002888:	f883 2044 	strb.w	r2, [r3, #68]	; 0x44
 800288c:	6abb      	ldr	r3, [r7, #40]	; 0x28
 800288e:	f893 3045 	ldrb.w	r3, [r3, #69]	; 0x45
 8002892:	b25b      	sxtb	r3, r3
 8002894:	f1b3 3fff 	cmp.w	r3, #4294967295
 8002898:	d103      	bne.n	80028a2 <xQueueReceive+0x122>
 800289a:	6abb      	ldr	r3, [r7, #40]	; 0x28
 800289c:	2200      	movs	r2, #0
 800289e:	f883 2045 	strb.w	r2, [r3, #69]	; 0x45
 80028a2:	f7ff fdd1 	bl	8002448 <vPortExitCritical>
 80028a6:	1d3a      	adds	r2, r7, #4
 80028a8:	f107 0310 	add.w	r3, r7, #16
 80028ac:	4611      	mov	r1, r2
 80028ae:	4618      	mov	r0, r3
 80028b0:	f000 ff3a 	bl	8003728 <xTaskCheckForTimeOut>
 80028b4:	4603      	mov	r3, r0
 80028b6:	2b00      	cmp	r3, #0
 80028b8:	d123      	bne.n	8002902 <xQueueReceive+0x182>
 80028ba:	6ab8      	ldr	r0, [r7, #40]	; 0x28
 80028bc:	f000 f8ac 	bl	8002a18 <prvIsQueueEmpty>
 80028c0:	4603      	mov	r3, r0
 80028c2:	2b00      	cmp	r3, #0
 80028c4:	d017      	beq.n	80028f6 <xQueueReceive+0x176>
 80028c6:	6abb      	ldr	r3, [r7, #40]	; 0x28
 80028c8:	3324      	adds	r3, #36	; 0x24
 80028ca:	687a      	ldr	r2, [r7, #4]
 80028cc:	4611      	mov	r1, r2
 80028ce:	4618      	mov	r0, r3
 80028d0:	f000 fdd4 	bl	800347c <vTaskPlaceOnEventList>
 80028d4:	6ab8      	ldr	r0, [r7, #40]	; 0x28
 80028d6:	f000 f84d 	bl	8002974 <prvUnlockQueue>
 80028da:	f000 fb81 	bl	8002fe0 <xTaskResumeAll>
 80028de:	4603      	mov	r3, r0
 80028e0:	2b00      	cmp	r3, #0
 80028e2:	d194      	bne.n	800280e <xQueueReceive+0x8e>
 80028e4:	4b0f      	ldr	r3, [pc, #60]	; (8002924 <xQueueReceive+0x1a4>)
 80028e6:	f04f 5280 	mov.w	r2, #268435456	; 0x10000000
 80028ea:	601a      	str	r2, [r3, #0]
 80028ec:	f3bf 8f4f 	dsb	sy
 80028f0:	f3bf 8f6f 	isb	sy
 80028f4:	e78b      	b.n	800280e <xQueueReceive+0x8e>
 80028f6:	6ab8      	ldr	r0, [r7, #40]	; 0x28
 80028f8:	f000 f83c 	bl	8002974 <prvUnlockQueue>
 80028fc:	f000 fb70 	bl	8002fe0 <xTaskResumeAll>
 8002900:	e785      	b.n	800280e <xQueueReceive+0x8e>
 8002902:	6ab8      	ldr	r0, [r7, #40]	; 0x28
 8002904:	f000 f836 	bl	8002974 <prvUnlockQueue>
 8002908:	f000 fb6a 	bl	8002fe0 <xTaskResumeAll>
 800290c:	6ab8      	ldr	r0, [r7, #40]	; 0x28
 800290e:	f000 f883 	bl	8002a18 <prvIsQueueEmpty>
 8002912:	4603      	mov	r3, r0
 8002914:	2b00      	cmp	r3, #0
 8002916:	f43f af7a 	beq.w	800280e <xQueueReceive+0x8e>
 800291a:	2300      	movs	r3, #0
 800291c:	4618      	mov	r0, r3
 800291e:	3730      	adds	r7, #48	; 0x30
 8002920:	46bd      	mov	sp, r7
 8002922:	bd80      	pop	{r7, pc}
 8002924:	e000ed04 	.word	0xe000ed04

08002928 <prvCopyDataFromQueue>:
 8002928:	b580      	push	{r7, lr}
 800292a:	b082      	sub	sp, #8
 800292c:	af00      	add	r7, sp, #0
 800292e:	6078      	str	r0, [r7, #4]
 8002930:	6039      	str	r1, [r7, #0]
 8002932:	687b      	ldr	r3, [r7, #4]
 8002934:	6c1b      	ldr	r3, [r3, #64]	; 0x40
 8002936:	2b00      	cmp	r3, #0
 8002938:	d018      	beq.n	800296c <prvCopyDataFromQueue+0x44>
 800293a:	687b      	ldr	r3, [r7, #4]
 800293c:	68da      	ldr	r2, [r3, #12]
 800293e:	687b      	ldr	r3, [r7, #4]
 8002940:	6c1b      	ldr	r3, [r3, #64]	; 0x40
 8002942:	441a      	add	r2, r3
 8002944:	687b      	ldr	r3, [r7, #4]
 8002946:	60da      	str	r2, [r3, #12]
 8002948:	687b      	ldr	r3, [r7, #4]
 800294a:	68da      	ldr	r2, [r3, #12]
 800294c:	687b      	ldr	r3, [r7, #4]
 800294e:	689b      	ldr	r3, [r3, #8]
 8002950:	429a      	cmp	r2, r3
 8002952:	d303      	bcc.n	800295c <prvCopyDataFromQueue+0x34>
 8002954:	687b      	ldr	r3, [r7, #4]
 8002956:	681a      	ldr	r2, [r3, #0]
 8002958:	687b      	ldr	r3, [r7, #4]
 800295a:	60da      	str	r2, [r3, #12]
 800295c:	687b      	ldr	r3, [r7, #4]
 800295e:	68d9      	ldr	r1, [r3, #12]
 8002960:	687b      	ldr	r3, [r7, #4]
 8002962:	6c1b      	ldr	r3, [r3, #64]	; 0x40
 8002964:	461a      	mov	r2, r3
 8002966:	6838      	ldr	r0, [r7, #0]
 8002968:	f001 fb6c 	bl	8004044 <memcpy>
 800296c:	bf00      	nop
 800296e:	3708      	adds	r7, #8
 8002970:	46bd      	mov	sp, r7
 8002972:	bd80      	pop	{r7, pc}

08002974 <prvUnlockQueue>:
 8002974:	b580      	push	{r7, lr}
 8002976:	b084      	sub	sp, #16
 8002978:	af00      	add	r7, sp, #0
 800297a:	6078      	str	r0, [r7, #4]
 800297c:	f7ff fd34 	bl	80023e8 <vPortEnterCritical>
 8002980:	687b      	ldr	r3, [r7, #4]
 8002982:	f893 3045 	ldrb.w	r3, [r3, #69]	; 0x45
 8002986:	73fb      	strb	r3, [r7, #15]
 8002988:	e011      	b.n	80029ae <prvUnlockQueue+0x3a>
 800298a:	687b      	ldr	r3, [r7, #4]
 800298c:	6a5b      	ldr	r3, [r3, #36]	; 0x24
 800298e:	2b00      	cmp	r3, #0
 8002990:	d012      	beq.n	80029b8 <prvUnlockQueue+0x44>
 8002992:	687b      	ldr	r3, [r7, #4]
 8002994:	3324      	adds	r3, #36	; 0x24
 8002996:	4618      	mov	r0, r3
 8002998:	f000 fdda 	bl	8003550 <xTaskRemoveFromEventList>
 800299c:	4603      	mov	r3, r0
 800299e:	2b00      	cmp	r3, #0
 80029a0:	d001      	beq.n	80029a6 <prvUnlockQueue+0x32>
 80029a2:	f000 ff27 	bl	80037f4 <vTaskMissedYield>
 80029a6:	7bfb      	ldrb	r3, [r7, #15]
 80029a8:	3b01      	subs	r3, #1
 80029aa:	b2db      	uxtb	r3, r3
 80029ac:	73fb      	strb	r3, [r7, #15]
 80029ae:	f997 300f 	ldrsb.w	r3, [r7, #15]
 80029b2:	2b00      	cmp	r3, #0
 80029b4:	dce9      	bgt.n	800298a <prvUnlockQueue+0x16>
 80029b6:	e000      	b.n	80029ba <prvUnlockQueue+0x46>
 80029b8:	bf00      	nop
 80029ba:	687b      	ldr	r3, [r7, #4]
 80029bc:	22ff      	movs	r2, #255	; 0xff
 80029be:	f883 2045 	strb.w	r2, [r3, #69]	; 0x45
 80029c2:	f7ff fd41 	bl	8002448 <vPortExitCritical>
 80029c6:	f7ff fd0f 	bl	80023e8 <vPortEnterCritical>
 80029ca:	687b      	ldr	r3, [r7, #4]
 80029cc:	f893 3044 	ldrb.w	r3, [r3, #68]	; 0x44
 80029d0:	73bb      	strb	r3, [r7, #14]
 80029d2:	e011      	b.n	80029f8 <prvUnlockQueue+0x84>
 80029d4:	687b      	ldr	r3, [r7, #4]
 80029d6:	691b      	ldr	r3, [r3, #16]
 80029d8:	2b00      	cmp	r3, #0
 80029da:	d012      	beq.n	8002a02 <prvUnlockQueue+0x8e>
 80029dc:	687b      	ldr	r3, [r7, #4]
 80029de:	3310      	adds	r3, #16
 80029e0:	4618      	mov	r0, r3
 80029e2:	f000 fdb5 	bl	8003550 <xTaskRemoveFromEventList>
 80029e6:	4603      	mov	r3, r0
 80029e8:	2b00      	cmp	r3, #0
 80029ea:	d001      	beq.n	80029f0 <prvUnlockQueue+0x7c>
 80029ec:	f000 ff02 	bl	80037f4 <vTaskMissedYield>
 80029f0:	7bbb      	ldrb	r3, [r7, #14]
 80029f2:	3b01      	subs	r3, #1
 80029f4:	b2db      	uxtb	r3, r3
 80029f6:	73bb      	strb	r3, [r7, #14]
 80029f8:	f997 300e 	ldrsb.w	r3, [r7, #14]
 80029fc:	2b00      	cmp	r3, #0
 80029fe:	dce9      	bgt.n	80029d4 <prvUnlockQueue+0x60>
 8002a00:	e000      	b.n	8002a04 <prvUnlockQueue+0x90>
 8002a02:	bf00      	nop
 8002a04:	687b      	ldr	r3, [r7, #4]
 8002a06:	22ff      	movs	r2, #255	; 0xff
 8002a08:	f883 2044 	strb.w	r2, [r3, #68]	; 0x44
 8002a0c:	f7ff fd1c 	bl	8002448 <vPortExitCritical>
 8002a10:	bf00      	nop
 8002a12:	3710      	adds	r7, #16
 8002a14:	46bd      	mov	sp, r7
 8002a16:	bd80      	pop	{r7, pc}

08002a18 <prvIsQueueEmpty>:
 8002a18:	b580      	push	{r7, lr}
 8002a1a:	b084      	sub	sp, #16
 8002a1c:	af00      	add	r7, sp, #0
 8002a1e:	6078      	str	r0, [r7, #4]
 8002a20:	f7ff fce2 	bl	80023e8 <vPortEnterCritical>
 8002a24:	687b      	ldr	r3, [r7, #4]
 8002a26:	6b9b      	ldr	r3, [r3, #56]	; 0x38
 8002a28:	2b00      	cmp	r3, #0
 8002a2a:	d102      	bne.n	8002a32 <prvIsQueueEmpty+0x1a>
 8002a2c:	2301      	movs	r3, #1
 8002a2e:	60fb      	str	r3, [r7, #12]
 8002a30:	e001      	b.n	8002a36 <prvIsQueueEmpty+0x1e>
 8002a32:	2300      	movs	r3, #0
 8002a34:	60fb      	str	r3, [r7, #12]
 8002a36:	f7ff fd07 	bl	8002448 <vPortExitCritical>
 8002a3a:	68fb      	ldr	r3, [r7, #12]
 8002a3c:	4618      	mov	r0, r3
 8002a3e:	3710      	adds	r7, #16
 8002a40:	46bd      	mov	sp, r7
 8002a42:	bd80      	pop	{r7, pc}

08002a44 <vQueueAddToRegistry>:
 8002a44:	b480      	push	{r7}
 8002a46:	b087      	sub	sp, #28
 8002a48:	af00      	add	r7, sp, #0
 8002a4a:	6078      	str	r0, [r7, #4]
 8002a4c:	6039      	str	r1, [r7, #0]
 8002a4e:	687b      	ldr	r3, [r7, #4]
 8002a50:	2b00      	cmp	r3, #0
 8002a52:	d10a      	bne.n	8002a6a <vQueueAddToRegistry+0x26>
 8002a54:	f04f 0350 	mov.w	r3, #80	; 0x50
 8002a58:	f383 8811 	msr	BASEPRI, r3
 8002a5c:	f3bf 8f6f 	isb	sy
 8002a60:	f3bf 8f4f 	dsb	sy
 8002a64:	60fb      	str	r3, [r7, #12]
 8002a66:	bf00      	nop
 8002a68:	e7fe      	b.n	8002a68 <vQueueAddToRegistry+0x24>
 8002a6a:	2300      	movs	r3, #0
 8002a6c:	613b      	str	r3, [r7, #16]
 8002a6e:	683b      	ldr	r3, [r7, #0]
 8002a70:	2b00      	cmp	r3, #0
 8002a72:	d024      	beq.n	8002abe <vQueueAddToRegistry+0x7a>
 8002a74:	2300      	movs	r3, #0
 8002a76:	617b      	str	r3, [r7, #20]
 8002a78:	e01e      	b.n	8002ab8 <vQueueAddToRegistry+0x74>
 8002a7a:	4a18      	ldr	r2, [pc, #96]	; (8002adc <vQueueAddToRegistry+0x98>)
 8002a7c:	697b      	ldr	r3, [r7, #20]
 8002a7e:	00db      	lsls	r3, r3, #3
 8002a80:	4413      	add	r3, r2
 8002a82:	685b      	ldr	r3, [r3, #4]
 8002a84:	687a      	ldr	r2, [r7, #4]
 8002a86:	429a      	cmp	r2, r3
 8002a88:	d105      	bne.n	8002a96 <vQueueAddToRegistry+0x52>
 8002a8a:	697b      	ldr	r3, [r7, #20]
 8002a8c:	00db      	lsls	r3, r3, #3
 8002a8e:	4a13      	ldr	r2, [pc, #76]	; (8002adc <vQueueAddToRegistry+0x98>)
 8002a90:	4413      	add	r3, r2
 8002a92:	613b      	str	r3, [r7, #16]
 8002a94:	e013      	b.n	8002abe <vQueueAddToRegistry+0x7a>
 8002a96:	693b      	ldr	r3, [r7, #16]
 8002a98:	2b00      	cmp	r3, #0
 8002a9a:	d10a      	bne.n	8002ab2 <vQueueAddToRegistry+0x6e>
 8002a9c:	4a0f      	ldr	r2, [pc, #60]	; (8002adc <vQueueAddToRegistry+0x98>)
 8002a9e:	697b      	ldr	r3, [r7, #20]
 8002aa0:	f852 3033 	ldr.w	r3, [r2, r3, lsl #3]
 8002aa4:	2b00      	cmp	r3, #0
 8002aa6:	d104      	bne.n	8002ab2 <vQueueAddToRegistry+0x6e>
 8002aa8:	697b      	ldr	r3, [r7, #20]
 8002aaa:	00db      	lsls	r3, r3, #3
 8002aac:	4a0b      	ldr	r2, [pc, #44]	; (8002adc <vQueueAddToRegistry+0x98>)
 8002aae:	4413      	add	r3, r2
 8002ab0:	613b      	str	r3, [r7, #16]
 8002ab2:	697b      	ldr	r3, [r7, #20]
 8002ab4:	3301      	adds	r3, #1
 8002ab6:	617b      	str	r3, [r7, #20]
 8002ab8:	697b      	ldr	r3, [r7, #20]
 8002aba:	2b07      	cmp	r3, #7
 8002abc:	d9dd      	bls.n	8002a7a <vQueueAddToRegistry+0x36>
 8002abe:	693b      	ldr	r3, [r7, #16]
 8002ac0:	2b00      	cmp	r3, #0
 8002ac2:	d005      	beq.n	8002ad0 <vQueueAddToRegistry+0x8c>
 8002ac4:	693b      	ldr	r3, [r7, #16]
 8002ac6:	683a      	ldr	r2, [r7, #0]
 8002ac8:	601a      	str	r2, [r3, #0]
 8002aca:	693b      	ldr	r3, [r7, #16]
 8002acc:	687a      	ldr	r2, [r7, #4]
 8002ace:	605a      	str	r2, [r3, #4]
 8002ad0:	bf00      	nop
 8002ad2:	371c      	adds	r7, #28
 8002ad4:	46bd      	mov	sp, r7
 8002ad6:	f85d 7b04 	ldr.w	r7, [sp], #4
 8002ada:	4770      	bx	lr
 8002adc:	2000c890 	.word	0x2000c890

08002ae0 <vQueueWaitForMessageRestricted>:
 8002ae0:	b580      	push	{r7, lr}
 8002ae2:	b086      	sub	sp, #24
 8002ae4:	af00      	add	r7, sp, #0
 8002ae6:	60f8      	str	r0, [r7, #12]
 8002ae8:	60b9      	str	r1, [r7, #8]
 8002aea:	607a      	str	r2, [r7, #4]
 8002aec:	68fb      	ldr	r3, [r7, #12]
 8002aee:	617b      	str	r3, [r7, #20]
 8002af0:	f7ff fc7a 	bl	80023e8 <vPortEnterCritical>
 8002af4:	697b      	ldr	r3, [r7, #20]
 8002af6:	f893 3044 	ldrb.w	r3, [r3, #68]	; 0x44
 8002afa:	b25b      	sxtb	r3, r3
 8002afc:	f1b3 3fff 	cmp.w	r3, #4294967295
 8002b00:	d103      	bne.n	8002b0a <vQueueWaitForMessageRestricted+0x2a>
 8002b02:	697b      	ldr	r3, [r7, #20]
 8002b04:	2200      	movs	r2, #0
 8002b06:	f883 2044 	strb.w	r2, [r3, #68]	; 0x44
 8002b0a:	697b      	ldr	r3, [r7, #20]
 8002b0c:	f893 3045 	ldrb.w	r3, [r3, #69]	; 0x45
 8002b10:	b25b      	sxtb	r3, r3
 8002b12:	f1b3 3fff 	cmp.w	r3, #4294967295
 8002b16:	d103      	bne.n	8002b20 <vQueueWaitForMessageRestricted+0x40>
 8002b18:	697b      	ldr	r3, [r7, #20]
 8002b1a:	2200      	movs	r2, #0
 8002b1c:	f883 2045 	strb.w	r2, [r3, #69]	; 0x45
 8002b20:	f7ff fc92 	bl	8002448 <vPortExitCritical>
 8002b24:	697b      	ldr	r3, [r7, #20]
 8002b26:	6b9b      	ldr	r3, [r3, #56]	; 0x38
 8002b28:	2b00      	cmp	r3, #0
 8002b2a:	d106      	bne.n	8002b3a <vQueueWaitForMessageRestricted+0x5a>
 8002b2c:	697b      	ldr	r3, [r7, #20]
 8002b2e:	3324      	adds	r3, #36	; 0x24
 8002b30:	687a      	ldr	r2, [r7, #4]
 8002b32:	68b9      	ldr	r1, [r7, #8]
 8002b34:	4618      	mov	r0, r3
 8002b36:	f000 fcc5 	bl	80034c4 <vTaskPlaceOnEventListRestricted>
 8002b3a:	6978      	ldr	r0, [r7, #20]
 8002b3c:	f7ff ff1a 	bl	8002974 <prvUnlockQueue>
 8002b40:	bf00      	nop
 8002b42:	3718      	adds	r7, #24
 8002b44:	46bd      	mov	sp, r7
 8002b46:	bd80      	pop	{r7, pc}

08002b48 <xTaskCreate>:
 8002b48:	b580      	push	{r7, lr}
 8002b4a:	b08c      	sub	sp, #48	; 0x30
 8002b4c:	af04      	add	r7, sp, #16
 8002b4e:	60f8      	str	r0, [r7, #12]
 8002b50:	60b9      	str	r1, [r7, #8]
 8002b52:	603b      	str	r3, [r7, #0]
 8002b54:	4613      	mov	r3, r2
 8002b56:	80fb      	strh	r3, [r7, #6]
 8002b58:	88fb      	ldrh	r3, [r7, #6]
 8002b5a:	009b      	lsls	r3, r3, #2
 8002b5c:	4618      	mov	r0, r3
 8002b5e:	f7fe fe19 	bl	8001794 <pvPortMalloc>
 8002b62:	6178      	str	r0, [r7, #20]
 8002b64:	697b      	ldr	r3, [r7, #20]
 8002b66:	2b00      	cmp	r3, #0
 8002b68:	d00e      	beq.n	8002b88 <xTaskCreate+0x40>
 8002b6a:	2058      	movs	r0, #88	; 0x58
 8002b6c:	f7fe fe12 	bl	8001794 <pvPortMalloc>
 8002b70:	61f8      	str	r0, [r7, #28]
 8002b72:	69fb      	ldr	r3, [r7, #28]
 8002b74:	2b00      	cmp	r3, #0
 8002b76:	d003      	beq.n	8002b80 <xTaskCreate+0x38>
 8002b78:	69fb      	ldr	r3, [r7, #28]
 8002b7a:	697a      	ldr	r2, [r7, #20]
 8002b7c:	631a      	str	r2, [r3, #48]	; 0x30
 8002b7e:	e005      	b.n	8002b8c <xTaskCreate+0x44>
 8002b80:	6978      	ldr	r0, [r7, #20]
 8002b82:	f7fe fee7 	bl	8001954 <vPortFree>
 8002b86:	e001      	b.n	8002b8c <xTaskCreate+0x44>
 8002b88:	2300      	movs	r3, #0
 8002b8a:	61fb      	str	r3, [r7, #28]
 8002b8c:	69fb      	ldr	r3, [r7, #28]
 8002b8e:	2b00      	cmp	r3, #0
 8002b90:	d013      	beq.n	8002bba <xTaskCreate+0x72>
 8002b92:	88fa      	ldrh	r2, [r7, #6]
 8002b94:	2300      	movs	r3, #0
 8002b96:	9303      	str	r3, [sp, #12]
 8002b98:	69fb      	ldr	r3, [r7, #28]
 8002b9a:	9302      	str	r3, [sp, #8]
 8002b9c:	6afb      	ldr	r3, [r7, #44]	; 0x2c
 8002b9e:	9301      	str	r3, [sp, #4]
 8002ba0:	6abb      	ldr	r3, [r7, #40]	; 0x28
 8002ba2:	9300      	str	r3, [sp, #0]
 8002ba4:	683b      	ldr	r3, [r7, #0]
 8002ba6:	68b9      	ldr	r1, [r7, #8]
 8002ba8:	68f8      	ldr	r0, [r7, #12]
 8002baa:	f000 f80e 	bl	8002bca <prvInitialiseNewTask>
 8002bae:	69f8      	ldr	r0, [r7, #28]
 8002bb0:	f000 f8b0 	bl	8002d14 <prvAddNewTaskToReadyList>
 8002bb4:	2301      	movs	r3, #1
 8002bb6:	61bb      	str	r3, [r7, #24]
 8002bb8:	e002      	b.n	8002bc0 <xTaskCreate+0x78>
 8002bba:	f04f 33ff 	mov.w	r3, #4294967295
 8002bbe:	61bb      	str	r3, [r7, #24]
 8002bc0:	69bb      	ldr	r3, [r7, #24]
 8002bc2:	4618      	mov	r0, r3
 8002bc4:	3720      	adds	r7, #32
 8002bc6:	46bd      	mov	sp, r7
 8002bc8:	bd80      	pop	{r7, pc}

08002bca <prvInitialiseNewTask>:
 8002bca:	b580      	push	{r7, lr}
 8002bcc:	b088      	sub	sp, #32
 8002bce:	af00      	add	r7, sp, #0
 8002bd0:	60f8      	str	r0, [r7, #12]
 8002bd2:	60b9      	str	r1, [r7, #8]
 8002bd4:	607a      	str	r2, [r7, #4]
 8002bd6:	603b      	str	r3, [r7, #0]
 8002bd8:	6b3b      	ldr	r3, [r7, #48]	; 0x30
 8002bda:	6b18      	ldr	r0, [r3, #48]	; 0x30
 8002bdc:	687b      	ldr	r3, [r7, #4]
 8002bde:	009b      	lsls	r3, r3, #2
 8002be0:	461a      	mov	r2, r3
 8002be2:	21a5      	movs	r1, #165	; 0xa5
 8002be4:	f001 fa3c 	bl	8004060 <memset>
 8002be8:	6b3b      	ldr	r3, [r7, #48]	; 0x30
 8002bea:	6b1a      	ldr	r2, [r3, #48]	; 0x30
 8002bec:	687b      	ldr	r3, [r7, #4]
 8002bee:	f103 4380 	add.w	r3, r3, #1073741824	; 0x40000000
 8002bf2:	3b01      	subs	r3, #1
 8002bf4:	009b      	lsls	r3, r3, #2
 8002bf6:	4413      	add	r3, r2
 8002bf8:	61bb      	str	r3, [r7, #24]
 8002bfa:	69bb      	ldr	r3, [r7, #24]
 8002bfc:	f023 0307 	bic.w	r3, r3, #7
 8002c00:	61bb      	str	r3, [r7, #24]
 8002c02:	69bb      	ldr	r3, [r7, #24]
 8002c04:	f003 0307 	and.w	r3, r3, #7
 8002c08:	2b00      	cmp	r3, #0
 8002c0a:	d00a      	beq.n	8002c22 <prvInitialiseNewTask+0x58>
 8002c0c:	f04f 0350 	mov.w	r3, #80	; 0x50
 8002c10:	f383 8811 	msr	BASEPRI, r3
 8002c14:	f3bf 8f6f 	isb	sy
 8002c18:	f3bf 8f4f 	dsb	sy
 8002c1c:	617b      	str	r3, [r7, #20]
 8002c1e:	bf00      	nop
 8002c20:	e7fe      	b.n	8002c20 <prvInitialiseNewTask+0x56>
 8002c22:	68bb      	ldr	r3, [r7, #8]
 8002c24:	2b00      	cmp	r3, #0
 8002c26:	d01f      	beq.n	8002c68 <prvInitialiseNewTask+0x9e>
 8002c28:	2300      	movs	r3, #0
 8002c2a:	61fb      	str	r3, [r7, #28]
 8002c2c:	e012      	b.n	8002c54 <prvInitialiseNewTask+0x8a>
 8002c2e:	68ba      	ldr	r2, [r7, #8]
 8002c30:	69fb      	ldr	r3, [r7, #28]
 8002c32:	4413      	add	r3, r2
 8002c34:	7819      	ldrb	r1, [r3, #0]
 8002c36:	6b3a      	ldr	r2, [r7, #48]	; 0x30
 8002c38:	69fb      	ldr	r3, [r7, #28]
 8002c3a:	4413      	add	r3, r2
 8002c3c:	3334      	adds	r3, #52	; 0x34
 8002c3e:	460a      	mov	r2, r1
 8002c40:	701a      	strb	r2, [r3, #0]
 8002c42:	68ba      	ldr	r2, [r7, #8]
 8002c44:	69fb      	ldr	r3, [r7, #28]
 8002c46:	4413      	add	r3, r2
 8002c48:	781b      	ldrb	r3, [r3, #0]
 8002c4a:	2b00      	cmp	r3, #0
 8002c4c:	d006      	beq.n	8002c5c <prvInitialiseNewTask+0x92>
 8002c4e:	69fb      	ldr	r3, [r7, #28]
 8002c50:	3301      	adds	r3, #1
 8002c52:	61fb      	str	r3, [r7, #28]
 8002c54:	69fb      	ldr	r3, [r7, #28]
 8002c56:	2b09      	cmp	r3, #9
 8002c58:	d9e9      	bls.n	8002c2e <prvInitialiseNewTask+0x64>
 8002c5a:	e000      	b.n	8002c5e <prvInitialiseNewTask+0x94>
 8002c5c:	bf00      	nop
 8002c5e:	6b3b      	ldr	r3, [r7, #48]	; 0x30
 8002c60:	2200      	movs	r2, #0
 8002c62:	f883 203d 	strb.w	r2, [r3, #61]	; 0x3d
 8002c66:	e003      	b.n	8002c70 <prvInitialiseNewTask+0xa6>
 8002c68:	6b3b      	ldr	r3, [r7, #48]	; 0x30
 8002c6a:	2200      	movs	r2, #0
 8002c6c:	f883 2034 	strb.w	r2, [r3, #52]	; 0x34
 8002c70:	6abb      	ldr	r3, [r7, #40]	; 0x28
 8002c72:	2b09      	cmp	r3, #9
 8002c74:	d90a      	bls.n	8002c8c <prvInitialiseNewTask+0xc2>
 8002c76:	f04f 0350 	mov.w	r3, #80	; 0x50
 8002c7a:	f383 8811 	msr	BASEPRI, r3
 8002c7e:	f3bf 8f6f 	isb	sy
 8002c82:	f3bf 8f4f 	dsb	sy
 8002c86:	613b      	str	r3, [r7, #16]
 8002c88:	bf00      	nop
 8002c8a:	e7fe      	b.n	8002c8a <prvInitialiseNewTask+0xc0>
 8002c8c:	6abb      	ldr	r3, [r7, #40]	; 0x28
 8002c8e:	2b09      	cmp	r3, #9
 8002c90:	d901      	bls.n	8002c96 <prvInitialiseNewTask+0xcc>
 8002c92:	2309      	movs	r3, #9
 8002c94:	62bb      	str	r3, [r7, #40]	; 0x28
 8002c96:	6b3b      	ldr	r3, [r7, #48]	; 0x30
 8002c98:	6aba      	ldr	r2, [r7, #40]	; 0x28
 8002c9a:	62da      	str	r2, [r3, #44]	; 0x2c
 8002c9c:	6b3b      	ldr	r3, [r7, #48]	; 0x30
 8002c9e:	6aba      	ldr	r2, [r7, #40]	; 0x28
 8002ca0:	649a      	str	r2, [r3, #72]	; 0x48
 8002ca2:	6b3b      	ldr	r3, [r7, #48]	; 0x30
 8002ca4:	2200      	movs	r2, #0
 8002ca6:	64da      	str	r2, [r3, #76]	; 0x4c
 8002ca8:	6b3b      	ldr	r3, [r7, #48]	; 0x30
 8002caa:	3304      	adds	r3, #4
 8002cac:	4618      	mov	r0, r3
 8002cae:	f7fe ff8f 	bl	8001bd0 <vListInitialiseItem>
 8002cb2:	6b3b      	ldr	r3, [r7, #48]	; 0x30
 8002cb4:	3318      	adds	r3, #24
 8002cb6:	4618      	mov	r0, r3
 8002cb8:	f7fe ff8a 	bl	8001bd0 <vListInitialiseItem>
 8002cbc:	6b3b      	ldr	r3, [r7, #48]	; 0x30
 8002cbe:	6b3a      	ldr	r2, [r7, #48]	; 0x30
 8002cc0:	611a      	str	r2, [r3, #16]
 8002cc2:	6abb      	ldr	r3, [r7, #40]	; 0x28
 8002cc4:	f1c3 020a 	rsb	r2, r3, #10
 8002cc8:	6b3b      	ldr	r3, [r7, #48]	; 0x30
 8002cca:	619a      	str	r2, [r3, #24]
 8002ccc:	6b3b      	ldr	r3, [r7, #48]	; 0x30
 8002cce:	6b3a      	ldr	r2, [r7, #48]	; 0x30
 8002cd0:	625a      	str	r2, [r3, #36]	; 0x24
 8002cd2:	6b3b      	ldr	r3, [r7, #48]	; 0x30
 8002cd4:	3350      	adds	r3, #80	; 0x50
 8002cd6:	2204      	movs	r2, #4
 8002cd8:	2100      	movs	r1, #0
 8002cda:	4618      	mov	r0, r3
 8002cdc:	f001 f9c0 	bl	8004060 <memset>
 8002ce0:	6b3b      	ldr	r3, [r7, #48]	; 0x30
 8002ce2:	3354      	adds	r3, #84	; 0x54
 8002ce4:	2201      	movs	r2, #1
 8002ce6:	2100      	movs	r1, #0
 8002ce8:	4618      	mov	r0, r3
 8002cea:	f001 f9b9 	bl	8004060 <memset>
 8002cee:	683a      	ldr	r2, [r7, #0]
 8002cf0:	68f9      	ldr	r1, [r7, #12]
 8002cf2:	69b8      	ldr	r0, [r7, #24]
 8002cf4:	f7ff fa4a 	bl	800218c <pxPortInitialiseStack>
 8002cf8:	4602      	mov	r2, r0
 8002cfa:	6b3b      	ldr	r3, [r7, #48]	; 0x30
 8002cfc:	601a      	str	r2, [r3, #0]
 8002cfe:	6afb      	ldr	r3, [r7, #44]	; 0x2c
 8002d00:	2b00      	cmp	r3, #0
 8002d02:	d002      	beq.n	8002d0a <prvInitialiseNewTask+0x140>
 8002d04:	6afb      	ldr	r3, [r7, #44]	; 0x2c
 8002d06:	6b3a      	ldr	r2, [r7, #48]	; 0x30
 8002d08:	601a      	str	r2, [r3, #0]
 8002d0a:	bf00      	nop
 8002d0c:	3720      	adds	r7, #32
 8002d0e:	46bd      	mov	sp, r7
 8002d10:	bd80      	pop	{r7, pc}
	...

08002d14 <prvAddNewTaskToReadyList>:
 8002d14:	b580      	push	{r7, lr}
 8002d16:	b084      	sub	sp, #16
 8002d18:	af00      	add	r7, sp, #0
 8002d1a:	6078      	str	r0, [r7, #4]
 8002d1c:	f7ff fb64 	bl	80023e8 <vPortEnterCritical>
 8002d20:	4b3a      	ldr	r3, [pc, #232]	; (8002e0c <prvAddNewTaskToReadyList+0xf8>)
 8002d22:	681b      	ldr	r3, [r3, #0]
 8002d24:	3301      	adds	r3, #1
 8002d26:	4a39      	ldr	r2, [pc, #228]	; (8002e0c <prvAddNewTaskToReadyList+0xf8>)
 8002d28:	6013      	str	r3, [r2, #0]
 8002d2a:	4b39      	ldr	r3, [pc, #228]	; (8002e10 <prvAddNewTaskToReadyList+0xfc>)
 8002d2c:	681b      	ldr	r3, [r3, #0]
 8002d2e:	2b00      	cmp	r3, #0
 8002d30:	d109      	bne.n	8002d46 <prvAddNewTaskToReadyList+0x32>
 8002d32:	4a37      	ldr	r2, [pc, #220]	; (8002e10 <prvAddNewTaskToReadyList+0xfc>)
 8002d34:	687b      	ldr	r3, [r7, #4]
 8002d36:	6013      	str	r3, [r2, #0]
 8002d38:	4b34      	ldr	r3, [pc, #208]	; (8002e0c <prvAddNewTaskToReadyList+0xf8>)
 8002d3a:	681b      	ldr	r3, [r3, #0]
 8002d3c:	2b01      	cmp	r3, #1
 8002d3e:	d110      	bne.n	8002d62 <prvAddNewTaskToReadyList+0x4e>
 8002d40:	f000 fd76 	bl	8003830 <prvInitialiseTaskLists>
 8002d44:	e00d      	b.n	8002d62 <prvAddNewTaskToReadyList+0x4e>
 8002d46:	4b33      	ldr	r3, [pc, #204]	; (8002e14 <prvAddNewTaskToReadyList+0x100>)
 8002d48:	681b      	ldr	r3, [r3, #0]
 8002d4a:	2b00      	cmp	r3, #0
 8002d4c:	d109      	bne.n	8002d62 <prvAddNewTaskToReadyList+0x4e>
 8002d4e:	4b30      	ldr	r3, [pc, #192]	; (8002e10 <prvAddNewTaskToReadyList+0xfc>)
 8002d50:	681b      	ldr	r3, [r3, #0]
 8002d52:	6ada      	ldr	r2, [r3, #44]	; 0x2c
 8002d54:	687b      	ldr	r3, [r7, #4]
 8002d56:	6adb      	ldr	r3, [r3, #44]	; 0x2c
 8002d58:	429a      	cmp	r2, r3
 8002d5a:	d802      	bhi.n	8002d62 <prvAddNewTaskToReadyList+0x4e>
 8002d5c:	4a2c      	ldr	r2, [pc, #176]	; (8002e10 <prvAddNewTaskToReadyList+0xfc>)
 8002d5e:	687b      	ldr	r3, [r7, #4]
 8002d60:	6013      	str	r3, [r2, #0]
 8002d62:	4b2d      	ldr	r3, [pc, #180]	; (8002e18 <prvAddNewTaskToReadyList+0x104>)
 8002d64:	681b      	ldr	r3, [r3, #0]
 8002d66:	3301      	adds	r3, #1
 8002d68:	4a2b      	ldr	r2, [pc, #172]	; (8002e18 <prvAddNewTaskToReadyList+0x104>)
 8002d6a:	6013      	str	r3, [r2, #0]
 8002d6c:	4b2a      	ldr	r3, [pc, #168]	; (8002e18 <prvAddNewTaskToReadyList+0x104>)
 8002d6e:	681a      	ldr	r2, [r3, #0]
 8002d70:	687b      	ldr	r3, [r7, #4]
 8002d72:	641a      	str	r2, [r3, #64]	; 0x40
 8002d74:	687b      	ldr	r3, [r7, #4]
 8002d76:	6adb      	ldr	r3, [r3, #44]	; 0x2c
 8002d78:	2201      	movs	r2, #1
 8002d7a:	409a      	lsls	r2, r3
 8002d7c:	4b27      	ldr	r3, [pc, #156]	; (8002e1c <prvAddNewTaskToReadyList+0x108>)
 8002d7e:	681b      	ldr	r3, [r3, #0]
 8002d80:	4313      	orrs	r3, r2
 8002d82:	4a26      	ldr	r2, [pc, #152]	; (8002e1c <prvAddNewTaskToReadyList+0x108>)
 8002d84:	6013      	str	r3, [r2, #0]
 8002d86:	687b      	ldr	r3, [r7, #4]
 8002d88:	6ada      	ldr	r2, [r3, #44]	; 0x2c
 8002d8a:	4925      	ldr	r1, [pc, #148]	; (8002e20 <prvAddNewTaskToReadyList+0x10c>)
 8002d8c:	4613      	mov	r3, r2
 8002d8e:	009b      	lsls	r3, r3, #2
 8002d90:	4413      	add	r3, r2
 8002d92:	009b      	lsls	r3, r3, #2
 8002d94:	440b      	add	r3, r1
 8002d96:	3304      	adds	r3, #4
 8002d98:	681b      	ldr	r3, [r3, #0]
 8002d9a:	60fb      	str	r3, [r7, #12]
 8002d9c:	687b      	ldr	r3, [r7, #4]
 8002d9e:	68fa      	ldr	r2, [r7, #12]
 8002da0:	609a      	str	r2, [r3, #8]
 8002da2:	68fb      	ldr	r3, [r7, #12]
 8002da4:	689a      	ldr	r2, [r3, #8]
 8002da6:	687b      	ldr	r3, [r7, #4]
 8002da8:	60da      	str	r2, [r3, #12]
 8002daa:	68fb      	ldr	r3, [r7, #12]
 8002dac:	689b      	ldr	r3, [r3, #8]
 8002dae:	687a      	ldr	r2, [r7, #4]
 8002db0:	3204      	adds	r2, #4
 8002db2:	605a      	str	r2, [r3, #4]
 8002db4:	687b      	ldr	r3, [r7, #4]
 8002db6:	1d1a      	adds	r2, r3, #4
 8002db8:	68fb      	ldr	r3, [r7, #12]
 8002dba:	609a      	str	r2, [r3, #8]
 8002dbc:	687b      	ldr	r3, [r7, #4]
 8002dbe:	6ada      	ldr	r2, [r3, #44]	; 0x2c
 8002dc0:	4613      	mov	r3, r2
 8002dc2:	009b      	lsls	r3, r3, #2
 8002dc4:	4413      	add	r3, r2
 8002dc6:	009b      	lsls	r3, r3, #2
 8002dc8:	4a15      	ldr	r2, [pc, #84]	; (8002e20 <prvAddNewTaskToReadyList+0x10c>)
 8002dca:	441a      	add	r2, r3
 8002dcc:	687b      	ldr	r3, [r7, #4]
 8002dce:	615a      	str	r2, [r3, #20]
 8002dd0:	687b      	ldr	r3, [r7, #4]
 8002dd2:	6ada      	ldr	r2, [r3, #44]	; 0x2c
 8002dd4:	4912      	ldr	r1, [pc, #72]	; (8002e20 <prvAddNewTaskToReadyList+0x10c>)
 8002dd6:	4613      	mov	r3, r2
 8002dd8:	009b      	lsls	r3, r3, #2
 8002dda:	4413      	add	r3, r2
 8002ddc:	009b      	lsls	r3, r3, #2
 8002dde:	440b      	add	r3, r1
 8002de0:	681b      	ldr	r3, [r3, #0]
 8002de2:	1c59      	adds	r1, r3, #1
 8002de4:	480e      	ldr	r0, [pc, #56]	; (8002e20 <prvAddNewTaskToReadyList+0x10c>)
 8002de6:	4613      	mov	r3, r2
 8002de8:	009b      	lsls	r3, r3, #2
 8002dea:	4413      	add	r3, r2
 8002dec:	009b      	lsls	r3, r3, #2
 8002dee:	4403      	add	r3, r0
 8002df0:	6019      	str	r1, [r3, #0]
 8002df2:	f7ff fb29 	bl	8002448 <vPortExitCritical>
 8002df6:	4b07      	ldr	r3, [pc, #28]	; (8002e14 <prvAddNewTaskToReadyList+0x100>)
 8002df8:	681b      	ldr	r3, [r3, #0]
 8002dfa:	2b00      	cmp	r3, #0
 8002dfc:	d001      	beq.n	8002e02 <prvAddNewTaskToReadyList+0xee>
 8002dfe:	4b04      	ldr	r3, [pc, #16]	; (8002e10 <prvAddNewTaskToReadyList+0xfc>)
 8002e00:	681b      	ldr	r3, [r3, #0]
 8002e02:	bf00      	nop
 8002e04:	3710      	adds	r7, #16
 8002e06:	46bd      	mov	sp, r7
 8002e08:	bd80      	pop	{r7, pc}
 8002e0a:	bf00      	nop
 8002e0c:	2000ca0c 	.word	0x2000ca0c
 8002e10:	2000c8d0 	.word	0x2000c8d0
 8002e14:	2000ca18 	.word	0x2000ca18
 8002e18:	2000ca28 	.word	0x2000ca28
 8002e1c:	2000ca14 	.word	0x2000ca14
 8002e20:	2000c8d4 	.word	0x2000c8d4

08002e24 <xTaskDelayUntil>:
 8002e24:	b580      	push	{r7, lr}
 8002e26:	b08a      	sub	sp, #40	; 0x28
 8002e28:	af00      	add	r7, sp, #0
 8002e2a:	6078      	str	r0, [r7, #4]
 8002e2c:	6039      	str	r1, [r7, #0]
 8002e2e:	2300      	movs	r3, #0
 8002e30:	627b      	str	r3, [r7, #36]	; 0x24
 8002e32:	687b      	ldr	r3, [r7, #4]
 8002e34:	2b00      	cmp	r3, #0
 8002e36:	d10a      	bne.n	8002e4e <xTaskDelayUntil+0x2a>
 8002e38:	f04f 0350 	mov.w	r3, #80	; 0x50
 8002e3c:	f383 8811 	msr	BASEPRI, r3
 8002e40:	f3bf 8f6f 	isb	sy
 8002e44:	f3bf 8f4f 	dsb	sy
 8002e48:	617b      	str	r3, [r7, #20]
 8002e4a:	bf00      	nop
 8002e4c:	e7fe      	b.n	8002e4c <xTaskDelayUntil+0x28>
 8002e4e:	683b      	ldr	r3, [r7, #0]
 8002e50:	2b00      	cmp	r3, #0
 8002e52:	d10a      	bne.n	8002e6a <xTaskDelayUntil+0x46>
 8002e54:	f04f 0350 	mov.w	r3, #80	; 0x50
 8002e58:	f383 8811 	msr	BASEPRI, r3
 8002e5c:	f3bf 8f6f 	isb	sy
 8002e60:	f3bf 8f4f 	dsb	sy
 8002e64:	613b      	str	r3, [r7, #16]
 8002e66:	bf00      	nop
 8002e68:	e7fe      	b.n	8002e68 <xTaskDelayUntil+0x44>
 8002e6a:	4b2a      	ldr	r3, [pc, #168]	; (8002f14 <xTaskDelayUntil+0xf0>)
 8002e6c:	681b      	ldr	r3, [r3, #0]
 8002e6e:	2b00      	cmp	r3, #0
 8002e70:	d00a      	beq.n	8002e88 <xTaskDelayUntil+0x64>
 8002e72:	f04f 0350 	mov.w	r3, #80	; 0x50
 8002e76:	f383 8811 	msr	BASEPRI, r3
 8002e7a:	f3bf 8f6f 	isb	sy
 8002e7e:	f3bf 8f4f 	dsb	sy
 8002e82:	60fb      	str	r3, [r7, #12]
 8002e84:	bf00      	nop
 8002e86:	e7fe      	b.n	8002e86 <xTaskDelayUntil+0x62>
 8002e88:	f000 f89c 	bl	8002fc4 <vTaskSuspendAll>
 8002e8c:	4b22      	ldr	r3, [pc, #136]	; (8002f18 <xTaskDelayUntil+0xf4>)
 8002e8e:	681b      	ldr	r3, [r3, #0]
 8002e90:	623b      	str	r3, [r7, #32]
 8002e92:	687b      	ldr	r3, [r7, #4]
 8002e94:	681b      	ldr	r3, [r3, #0]
 8002e96:	683a      	ldr	r2, [r7, #0]
 8002e98:	4413      	add	r3, r2
 8002e9a:	61fb      	str	r3, [r7, #28]
 8002e9c:	687b      	ldr	r3, [r7, #4]
 8002e9e:	681b      	ldr	r3, [r3, #0]
 8002ea0:	6a3a      	ldr	r2, [r7, #32]
 8002ea2:	429a      	cmp	r2, r3
 8002ea4:	d20b      	bcs.n	8002ebe <xTaskDelayUntil+0x9a>
 8002ea6:	687b      	ldr	r3, [r7, #4]
 8002ea8:	681b      	ldr	r3, [r3, #0]
 8002eaa:	69fa      	ldr	r2, [r7, #28]
 8002eac:	429a      	cmp	r2, r3
 8002eae:	d211      	bcs.n	8002ed4 <xTaskDelayUntil+0xb0>
 8002eb0:	69fa      	ldr	r2, [r7, #28]
 8002eb2:	6a3b      	ldr	r3, [r7, #32]
 8002eb4:	429a      	cmp	r2, r3
 8002eb6:	d90d      	bls.n	8002ed4 <xTaskDelayUntil+0xb0>
 8002eb8:	2301      	movs	r3, #1
 8002eba:	627b      	str	r3, [r7, #36]	; 0x24
 8002ebc:	e00a      	b.n	8002ed4 <xTaskDelayUntil+0xb0>
 8002ebe:	687b      	ldr	r3, [r7, #4]
 8002ec0:	681b      	ldr	r3, [r3, #0]
 8002ec2:	69fa      	ldr	r2, [r7, #28]
 8002ec4:	429a      	cmp	r2, r3
 8002ec6:	d303      	bcc.n	8002ed0 <xTaskDelayUntil+0xac>
 8002ec8:	69fa      	ldr	r2, [r7, #28]
 8002eca:	6a3b      	ldr	r3, [r7, #32]
 8002ecc:	429a      	cmp	r2, r3
 8002ece:	d901      	bls.n	8002ed4 <xTaskDelayUntil+0xb0>
 8002ed0:	2301      	movs	r3, #1
 8002ed2:	627b      	str	r3, [r7, #36]	; 0x24
 8002ed4:	687b      	ldr	r3, [r7, #4]
 8002ed6:	69fa      	ldr	r2, [r7, #28]
 8002ed8:	601a      	str	r2, [r3, #0]
 8002eda:	6a7b      	ldr	r3, [r7, #36]	; 0x24
 8002edc:	2b00      	cmp	r3, #0
 8002ede:	d006      	beq.n	8002eee <xTaskDelayUntil+0xca>
 8002ee0:	69fa      	ldr	r2, [r7, #28]
 8002ee2:	6a3b      	ldr	r3, [r7, #32]
 8002ee4:	1ad3      	subs	r3, r2, r3
 8002ee6:	2100      	movs	r1, #0
 8002ee8:	4618      	mov	r0, r3
 8002eea:	f000 fd59 	bl	80039a0 <prvAddCurrentTaskToDelayedList>
 8002eee:	f000 f877 	bl	8002fe0 <xTaskResumeAll>
 8002ef2:	61b8      	str	r0, [r7, #24]
 8002ef4:	69bb      	ldr	r3, [r7, #24]
 8002ef6:	2b00      	cmp	r3, #0
 8002ef8:	d107      	bne.n	8002f0a <xTaskDelayUntil+0xe6>
 8002efa:	4b08      	ldr	r3, [pc, #32]	; (8002f1c <xTaskDelayUntil+0xf8>)
 8002efc:	f04f 5280 	mov.w	r2, #268435456	; 0x10000000
 8002f00:	601a      	str	r2, [r3, #0]
 8002f02:	f3bf 8f4f 	dsb	sy
 8002f06:	f3bf 8f6f 	isb	sy
 8002f0a:	6a7b      	ldr	r3, [r7, #36]	; 0x24
 8002f0c:	4618      	mov	r0, r3
 8002f0e:	3728      	adds	r7, #40	; 0x28
 8002f10:	46bd      	mov	sp, r7
 8002f12:	bd80      	pop	{r7, pc}
 8002f14:	2000ca34 	.word	0x2000ca34
 8002f18:	2000ca10 	.word	0x2000ca10
 8002f1c:	e000ed04 	.word	0xe000ed04

08002f20 <vTaskStartScheduler>:
 8002f20:	b580      	push	{r7, lr}
 8002f22:	b086      	sub	sp, #24
 8002f24:	af02      	add	r7, sp, #8
 8002f26:	4b20      	ldr	r3, [pc, #128]	; (8002fa8 <vTaskStartScheduler+0x88>)
 8002f28:	9301      	str	r3, [sp, #4]
 8002f2a:	2300      	movs	r3, #0
 8002f2c:	9300      	str	r3, [sp, #0]
 8002f2e:	2300      	movs	r3, #0
 8002f30:	2280      	movs	r2, #128	; 0x80
 8002f32:	491e      	ldr	r1, [pc, #120]	; (8002fac <vTaskStartScheduler+0x8c>)
 8002f34:	481e      	ldr	r0, [pc, #120]	; (8002fb0 <vTaskStartScheduler+0x90>)
 8002f36:	f7ff fe07 	bl	8002b48 <xTaskCreate>
 8002f3a:	60f8      	str	r0, [r7, #12]
 8002f3c:	68fb      	ldr	r3, [r7, #12]
 8002f3e:	2b01      	cmp	r3, #1
 8002f40:	d102      	bne.n	8002f48 <vTaskStartScheduler+0x28>
 8002f42:	f000 fdad 	bl	8003aa0 <xTimerCreateTimerTask>
 8002f46:	60f8      	str	r0, [r7, #12]
 8002f48:	68fb      	ldr	r3, [r7, #12]
 8002f4a:	2b01      	cmp	r3, #1
 8002f4c:	d116      	bne.n	8002f7c <vTaskStartScheduler+0x5c>
 8002f4e:	f04f 0350 	mov.w	r3, #80	; 0x50
 8002f52:	f383 8811 	msr	BASEPRI, r3
 8002f56:	f3bf 8f6f 	isb	sy
 8002f5a:	f3bf 8f4f 	dsb	sy
 8002f5e:	60bb      	str	r3, [r7, #8]
 8002f60:	bf00      	nop
 8002f62:	4b14      	ldr	r3, [pc, #80]	; (8002fb4 <vTaskStartScheduler+0x94>)
 8002f64:	f04f 32ff 	mov.w	r2, #4294967295
 8002f68:	601a      	str	r2, [r3, #0]
 8002f6a:	4b13      	ldr	r3, [pc, #76]	; (8002fb8 <vTaskStartScheduler+0x98>)
 8002f6c:	2201      	movs	r2, #1
 8002f6e:	601a      	str	r2, [r3, #0]
 8002f70:	4b12      	ldr	r3, [pc, #72]	; (8002fbc <vTaskStartScheduler+0x9c>)
 8002f72:	2200      	movs	r2, #0
 8002f74:	601a      	str	r2, [r3, #0]
 8002f76:	f7ff f995 	bl	80022a4 <xPortStartScheduler>
 8002f7a:	e00e      	b.n	8002f9a <vTaskStartScheduler+0x7a>
 8002f7c:	68fb      	ldr	r3, [r7, #12]
 8002f7e:	f1b3 3fff 	cmp.w	r3, #4294967295
 8002f82:	d10a      	bne.n	8002f9a <vTaskStartScheduler+0x7a>
 8002f84:	f04f 0350 	mov.w	r3, #80	; 0x50
 8002f88:	f383 8811 	msr	BASEPRI, r3
 8002f8c:	f3bf 8f6f 	isb	sy
 8002f90:	f3bf 8f4f 	dsb	sy
 8002f94:	607b      	str	r3, [r7, #4]
 8002f96:	bf00      	nop
 8002f98:	e7fe      	b.n	8002f98 <vTaskStartScheduler+0x78>
 8002f9a:	4b09      	ldr	r3, [pc, #36]	; (8002fc0 <vTaskStartScheduler+0xa0>)
 8002f9c:	681b      	ldr	r3, [r3, #0]
 8002f9e:	bf00      	nop
 8002fa0:	3710      	adds	r7, #16
 8002fa2:	46bd      	mov	sp, r7
 8002fa4:	bd80      	pop	{r7, pc}
 8002fa6:	bf00      	nop
 8002fa8:	2000ca30 	.word	0x2000ca30
 8002fac:	08004088 	.word	0x08004088
 8002fb0:	0800380d 	.word	0x0800380d
 8002fb4:	2000ca2c 	.word	0x2000ca2c
 8002fb8:	2000ca18 	.word	0x2000ca18
 8002fbc:	2000ca10 	.word	0x2000ca10
 8002fc0:	2000000c 	.word	0x2000000c

08002fc4 <vTaskSuspendAll>:
 8002fc4:	b480      	push	{r7}
 8002fc6:	af00      	add	r7, sp, #0
 8002fc8:	4b04      	ldr	r3, [pc, #16]	; (8002fdc <vTaskSuspendAll+0x18>)
 8002fca:	681b      	ldr	r3, [r3, #0]
 8002fcc:	3301      	adds	r3, #1
 8002fce:	4a03      	ldr	r2, [pc, #12]	; (8002fdc <vTaskSuspendAll+0x18>)
 8002fd0:	6013      	str	r3, [r2, #0]
 8002fd2:	bf00      	nop
 8002fd4:	46bd      	mov	sp, r7
 8002fd6:	f85d 7b04 	ldr.w	r7, [sp], #4
 8002fda:	4770      	bx	lr
 8002fdc:	2000ca34 	.word	0x2000ca34

08002fe0 <xTaskResumeAll>:
 8002fe0:	b580      	push	{r7, lr}
 8002fe2:	b088      	sub	sp, #32
 8002fe4:	af00      	add	r7, sp, #0
 8002fe6:	2300      	movs	r3, #0
 8002fe8:	61fb      	str	r3, [r7, #28]
 8002fea:	2300      	movs	r3, #0
 8002fec:	617b      	str	r3, [r7, #20]
 8002fee:	4b6b      	ldr	r3, [pc, #428]	; (800319c <xTaskResumeAll+0x1bc>)
 8002ff0:	681b      	ldr	r3, [r3, #0]
 8002ff2:	2b00      	cmp	r3, #0
 8002ff4:	d10a      	bne.n	800300c <xTaskResumeAll+0x2c>
 8002ff6:	f04f 0350 	mov.w	r3, #80	; 0x50
 8002ffa:	f383 8811 	msr	BASEPRI, r3
 8002ffe:	f3bf 8f6f 	isb	sy
 8003002:	f3bf 8f4f 	dsb	sy
 8003006:	607b      	str	r3, [r7, #4]
 8003008:	bf00      	nop
 800300a:	e7fe      	b.n	800300a <xTaskResumeAll+0x2a>
 800300c:	f7ff f9ec 	bl	80023e8 <vPortEnterCritical>
 8003010:	4b62      	ldr	r3, [pc, #392]	; (800319c <xTaskResumeAll+0x1bc>)
 8003012:	681b      	ldr	r3, [r3, #0]
 8003014:	3b01      	subs	r3, #1
 8003016:	4a61      	ldr	r2, [pc, #388]	; (800319c <xTaskResumeAll+0x1bc>)
 8003018:	6013      	str	r3, [r2, #0]
 800301a:	4b60      	ldr	r3, [pc, #384]	; (800319c <xTaskResumeAll+0x1bc>)
 800301c:	681b      	ldr	r3, [r3, #0]
 800301e:	2b00      	cmp	r3, #0
 8003020:	f040 80b4 	bne.w	800318c <xTaskResumeAll+0x1ac>
 8003024:	4b5e      	ldr	r3, [pc, #376]	; (80031a0 <xTaskResumeAll+0x1c0>)
 8003026:	681b      	ldr	r3, [r3, #0]
 8003028:	2b00      	cmp	r3, #0
 800302a:	f000 80af 	beq.w	800318c <xTaskResumeAll+0x1ac>
 800302e:	e08a      	b.n	8003146 <xTaskResumeAll+0x166>
 8003030:	4b5c      	ldr	r3, [pc, #368]	; (80031a4 <xTaskResumeAll+0x1c4>)
 8003032:	68db      	ldr	r3, [r3, #12]
 8003034:	68db      	ldr	r3, [r3, #12]
 8003036:	61fb      	str	r3, [r7, #28]
 8003038:	69fb      	ldr	r3, [r7, #28]
 800303a:	6a9b      	ldr	r3, [r3, #40]	; 0x28
 800303c:	613b      	str	r3, [r7, #16]
 800303e:	69fb      	ldr	r3, [r7, #28]
 8003040:	69db      	ldr	r3, [r3, #28]
 8003042:	69fa      	ldr	r2, [r7, #28]
 8003044:	6a12      	ldr	r2, [r2, #32]
 8003046:	609a      	str	r2, [r3, #8]
 8003048:	69fb      	ldr	r3, [r7, #28]
 800304a:	6a1b      	ldr	r3, [r3, #32]
 800304c:	69fa      	ldr	r2, [r7, #28]
 800304e:	69d2      	ldr	r2, [r2, #28]
 8003050:	605a      	str	r2, [r3, #4]
 8003052:	693b      	ldr	r3, [r7, #16]
 8003054:	685a      	ldr	r2, [r3, #4]
 8003056:	69fb      	ldr	r3, [r7, #28]
 8003058:	3318      	adds	r3, #24
 800305a:	429a      	cmp	r2, r3
 800305c:	d103      	bne.n	8003066 <xTaskResumeAll+0x86>
 800305e:	69fb      	ldr	r3, [r7, #28]
 8003060:	6a1a      	ldr	r2, [r3, #32]
 8003062:	693b      	ldr	r3, [r7, #16]
 8003064:	605a      	str	r2, [r3, #4]
 8003066:	69fb      	ldr	r3, [r7, #28]
 8003068:	2200      	movs	r2, #0
 800306a:	629a      	str	r2, [r3, #40]	; 0x28
 800306c:	693b      	ldr	r3, [r7, #16]
 800306e:	681b      	ldr	r3, [r3, #0]
 8003070:	1e5a      	subs	r2, r3, #1
 8003072:	693b      	ldr	r3, [r7, #16]
 8003074:	601a      	str	r2, [r3, #0]
 8003076:	69fb      	ldr	r3, [r7, #28]
 8003078:	695b      	ldr	r3, [r3, #20]
 800307a:	60fb      	str	r3, [r7, #12]
 800307c:	69fb      	ldr	r3, [r7, #28]
 800307e:	689b      	ldr	r3, [r3, #8]
 8003080:	69fa      	ldr	r2, [r7, #28]
 8003082:	68d2      	ldr	r2, [r2, #12]
 8003084:	609a      	str	r2, [r3, #8]
 8003086:	69fb      	ldr	r3, [r7, #28]
 8003088:	68db      	ldr	r3, [r3, #12]
 800308a:	69fa      	ldr	r2, [r7, #28]
 800308c:	6892      	ldr	r2, [r2, #8]
 800308e:	605a      	str	r2, [r3, #4]
 8003090:	68fb      	ldr	r3, [r7, #12]
 8003092:	685a      	ldr	r2, [r3, #4]
 8003094:	69fb      	ldr	r3, [r7, #28]
 8003096:	3304      	adds	r3, #4
 8003098:	429a      	cmp	r2, r3
 800309a:	d103      	bne.n	80030a4 <xTaskResumeAll+0xc4>
 800309c:	69fb      	ldr	r3, [r7, #28]
 800309e:	68da      	ldr	r2, [r3, #12]
 80030a0:	68fb      	ldr	r3, [r7, #12]
 80030a2:	605a      	str	r2, [r3, #4]
 80030a4:	69fb      	ldr	r3, [r7, #28]
 80030a6:	2200      	movs	r2, #0
 80030a8:	615a      	str	r2, [r3, #20]
 80030aa:	68fb      	ldr	r3, [r7, #12]
 80030ac:	681b      	ldr	r3, [r3, #0]
 80030ae:	1e5a      	subs	r2, r3, #1
 80030b0:	68fb      	ldr	r3, [r7, #12]
 80030b2:	601a      	str	r2, [r3, #0]
 80030b4:	69fb      	ldr	r3, [r7, #28]
 80030b6:	6adb      	ldr	r3, [r3, #44]	; 0x2c
 80030b8:	2201      	movs	r2, #1
 80030ba:	409a      	lsls	r2, r3
 80030bc:	4b3a      	ldr	r3, [pc, #232]	; (80031a8 <xTaskResumeAll+0x1c8>)
 80030be:	681b      	ldr	r3, [r3, #0]
 80030c0:	4313      	orrs	r3, r2
 80030c2:	4a39      	ldr	r2, [pc, #228]	; (80031a8 <xTaskResumeAll+0x1c8>)
 80030c4:	6013      	str	r3, [r2, #0]
 80030c6:	69fb      	ldr	r3, [r7, #28]
 80030c8:	6ada      	ldr	r2, [r3, #44]	; 0x2c
 80030ca:	4938      	ldr	r1, [pc, #224]	; (80031ac <xTaskResumeAll+0x1cc>)
 80030cc:	4613      	mov	r3, r2
 80030ce:	009b      	lsls	r3, r3, #2
 80030d0:	4413      	add	r3, r2
 80030d2:	009b      	lsls	r3, r3, #2
 80030d4:	440b      	add	r3, r1
 80030d6:	3304      	adds	r3, #4
 80030d8:	681b      	ldr	r3, [r3, #0]
 80030da:	60bb      	str	r3, [r7, #8]
 80030dc:	69fb      	ldr	r3, [r7, #28]
 80030de:	68ba      	ldr	r2, [r7, #8]
 80030e0:	609a      	str	r2, [r3, #8]
 80030e2:	68bb      	ldr	r3, [r7, #8]
 80030e4:	689a      	ldr	r2, [r3, #8]
 80030e6:	69fb      	ldr	r3, [r7, #28]
 80030e8:	60da      	str	r2, [r3, #12]
 80030ea:	68bb      	ldr	r3, [r7, #8]
 80030ec:	689b      	ldr	r3, [r3, #8]
 80030ee:	69fa      	ldr	r2, [r7, #28]
 80030f0:	3204      	adds	r2, #4
 80030f2:	605a      	str	r2, [r3, #4]
 80030f4:	69fb      	ldr	r3, [r7, #28]
 80030f6:	1d1a      	adds	r2, r3, #4
 80030f8:	68bb      	ldr	r3, [r7, #8]
 80030fa:	609a      	str	r2, [r3, #8]
 80030fc:	69fb      	ldr	r3, [r7, #28]
 80030fe:	6ada      	ldr	r2, [r3, #44]	; 0x2c
 8003100:	4613      	mov	r3, r2
 8003102:	009b      	lsls	r3, r3, #2
 8003104:	4413      	add	r3, r2
 8003106:	009b      	lsls	r3, r3, #2
 8003108:	4a28      	ldr	r2, [pc, #160]	; (80031ac <xTaskResumeAll+0x1cc>)
 800310a:	441a      	add	r2, r3
 800310c:	69fb      	ldr	r3, [r7, #28]
 800310e:	615a      	str	r2, [r3, #20]
 8003110:	69fb      	ldr	r3, [r7, #28]
 8003112:	6ada      	ldr	r2, [r3, #44]	; 0x2c
 8003114:	4925      	ldr	r1, [pc, #148]	; (80031ac <xTaskResumeAll+0x1cc>)
 8003116:	4613      	mov	r3, r2
 8003118:	009b      	lsls	r3, r3, #2
 800311a:	4413      	add	r3, r2
 800311c:	009b      	lsls	r3, r3, #2
 800311e:	440b      	add	r3, r1
 8003120:	681b      	ldr	r3, [r3, #0]
 8003122:	1c59      	adds	r1, r3, #1
 8003124:	4821      	ldr	r0, [pc, #132]	; (80031ac <xTaskResumeAll+0x1cc>)
 8003126:	4613      	mov	r3, r2
 8003128:	009b      	lsls	r3, r3, #2
 800312a:	4413      	add	r3, r2
 800312c:	009b      	lsls	r3, r3, #2
 800312e:	4403      	add	r3, r0
 8003130:	6019      	str	r1, [r3, #0]
 8003132:	69fb      	ldr	r3, [r7, #28]
 8003134:	6ada      	ldr	r2, [r3, #44]	; 0x2c
 8003136:	4b1e      	ldr	r3, [pc, #120]	; (80031b0 <xTaskResumeAll+0x1d0>)
 8003138:	681b      	ldr	r3, [r3, #0]
 800313a:	6adb      	ldr	r3, [r3, #44]	; 0x2c
 800313c:	429a      	cmp	r2, r3
 800313e:	d302      	bcc.n	8003146 <xTaskResumeAll+0x166>
 8003140:	4b1c      	ldr	r3, [pc, #112]	; (80031b4 <xTaskResumeAll+0x1d4>)
 8003142:	2201      	movs	r2, #1
 8003144:	601a      	str	r2, [r3, #0]
 8003146:	4b17      	ldr	r3, [pc, #92]	; (80031a4 <xTaskResumeAll+0x1c4>)
 8003148:	681b      	ldr	r3, [r3, #0]
 800314a:	2b00      	cmp	r3, #0
 800314c:	f47f af70 	bne.w	8003030 <xTaskResumeAll+0x50>
 8003150:	69fb      	ldr	r3, [r7, #28]
 8003152:	2b00      	cmp	r3, #0
 8003154:	d001      	beq.n	800315a <xTaskResumeAll+0x17a>
 8003156:	f000 fbe9 	bl	800392c <prvResetNextTaskUnblockTime>
 800315a:	4b17      	ldr	r3, [pc, #92]	; (80031b8 <xTaskResumeAll+0x1d8>)
 800315c:	681b      	ldr	r3, [r3, #0]
 800315e:	61bb      	str	r3, [r7, #24]
 8003160:	69bb      	ldr	r3, [r7, #24]
 8003162:	2b00      	cmp	r3, #0
 8003164:	d010      	beq.n	8003188 <xTaskResumeAll+0x1a8>
 8003166:	f000 f839 	bl	80031dc <xTaskIncrementTick>
 800316a:	4603      	mov	r3, r0
 800316c:	2b00      	cmp	r3, #0
 800316e:	d002      	beq.n	8003176 <xTaskResumeAll+0x196>
 8003170:	4b10      	ldr	r3, [pc, #64]	; (80031b4 <xTaskResumeAll+0x1d4>)
 8003172:	2201      	movs	r2, #1
 8003174:	601a      	str	r2, [r3, #0]
 8003176:	69bb      	ldr	r3, [r7, #24]
 8003178:	3b01      	subs	r3, #1
 800317a:	61bb      	str	r3, [r7, #24]
 800317c:	69bb      	ldr	r3, [r7, #24]
 800317e:	2b00      	cmp	r3, #0
 8003180:	d1f1      	bne.n	8003166 <xTaskResumeAll+0x186>
 8003182:	4b0d      	ldr	r3, [pc, #52]	; (80031b8 <xTaskResumeAll+0x1d8>)
 8003184:	2200      	movs	r2, #0
 8003186:	601a      	str	r2, [r3, #0]
 8003188:	4b0a      	ldr	r3, [pc, #40]	; (80031b4 <xTaskResumeAll+0x1d4>)
 800318a:	681b      	ldr	r3, [r3, #0]
 800318c:	f7ff f95c 	bl	8002448 <vPortExitCritical>
 8003190:	697b      	ldr	r3, [r7, #20]
 8003192:	4618      	mov	r0, r3
 8003194:	3720      	adds	r7, #32
 8003196:	46bd      	mov	sp, r7
 8003198:	bd80      	pop	{r7, pc}
 800319a:	bf00      	nop
 800319c:	2000ca34 	.word	0x2000ca34
 80031a0:	2000ca0c 	.word	0x2000ca0c
 80031a4:	2000c9cc 	.word	0x2000c9cc
 80031a8:	2000ca14 	.word	0x2000ca14
 80031ac:	2000c8d4 	.word	0x2000c8d4
 80031b0:	2000c8d0 	.word	0x2000c8d0
 80031b4:	2000ca20 	.word	0x2000ca20
 80031b8:	2000ca1c 	.word	0x2000ca1c

080031bc <xTaskGetTickCount>:
 80031bc:	b480      	push	{r7}
 80031be:	b083      	sub	sp, #12
 80031c0:	af00      	add	r7, sp, #0
 80031c2:	4b05      	ldr	r3, [pc, #20]	; (80031d8 <xTaskGetTickCount+0x1c>)
 80031c4:	681b      	ldr	r3, [r3, #0]
 80031c6:	607b      	str	r3, [r7, #4]
 80031c8:	687b      	ldr	r3, [r7, #4]
 80031ca:	4618      	mov	r0, r3
 80031cc:	370c      	adds	r7, #12
 80031ce:	46bd      	mov	sp, r7
 80031d0:	f85d 7b04 	ldr.w	r7, [sp], #4
 80031d4:	4770      	bx	lr
 80031d6:	bf00      	nop
 80031d8:	2000ca10 	.word	0x2000ca10

080031dc <xTaskIncrementTick>:
 80031dc:	b580      	push	{r7, lr}
 80031de:	b08a      	sub	sp, #40	; 0x28
 80031e0:	af00      	add	r7, sp, #0
 80031e2:	2300      	movs	r3, #0
 80031e4:	627b      	str	r3, [r7, #36]	; 0x24
 80031e6:	4b6e      	ldr	r3, [pc, #440]	; (80033a0 <xTaskIncrementTick+0x1c4>)
 80031e8:	681b      	ldr	r3, [r3, #0]
 80031ea:	2b00      	cmp	r3, #0
 80031ec:	f040 80cd 	bne.w	800338a <xTaskIncrementTick+0x1ae>
 80031f0:	4b6c      	ldr	r3, [pc, #432]	; (80033a4 <xTaskIncrementTick+0x1c8>)
 80031f2:	681b      	ldr	r3, [r3, #0]
 80031f4:	3301      	adds	r3, #1
 80031f6:	623b      	str	r3, [r7, #32]
 80031f8:	4a6a      	ldr	r2, [pc, #424]	; (80033a4 <xTaskIncrementTick+0x1c8>)
 80031fa:	6a3b      	ldr	r3, [r7, #32]
 80031fc:	6013      	str	r3, [r2, #0]
 80031fe:	6a3b      	ldr	r3, [r7, #32]
 8003200:	2b00      	cmp	r3, #0
 8003202:	d120      	bne.n	8003246 <xTaskIncrementTick+0x6a>
 8003204:	4b68      	ldr	r3, [pc, #416]	; (80033a8 <xTaskIncrementTick+0x1cc>)
 8003206:	681b      	ldr	r3, [r3, #0]
 8003208:	681b      	ldr	r3, [r3, #0]
 800320a:	2b00      	cmp	r3, #0
 800320c:	d00a      	beq.n	8003224 <xTaskIncrementTick+0x48>
 800320e:	f04f 0350 	mov.w	r3, #80	; 0x50
 8003212:	f383 8811 	msr	BASEPRI, r3
 8003216:	f3bf 8f6f 	isb	sy
 800321a:	f3bf 8f4f 	dsb	sy
 800321e:	607b      	str	r3, [r7, #4]
 8003220:	bf00      	nop
 8003222:	e7fe      	b.n	8003222 <xTaskIncrementTick+0x46>
 8003224:	4b60      	ldr	r3, [pc, #384]	; (80033a8 <xTaskIncrementTick+0x1cc>)
 8003226:	681b      	ldr	r3, [r3, #0]
 8003228:	61fb      	str	r3, [r7, #28]
 800322a:	4b60      	ldr	r3, [pc, #384]	; (80033ac <xTaskIncrementTick+0x1d0>)
 800322c:	681b      	ldr	r3, [r3, #0]
 800322e:	4a5e      	ldr	r2, [pc, #376]	; (80033a8 <xTaskIncrementTick+0x1cc>)
 8003230:	6013      	str	r3, [r2, #0]
 8003232:	4a5e      	ldr	r2, [pc, #376]	; (80033ac <xTaskIncrementTick+0x1d0>)
 8003234:	69fb      	ldr	r3, [r7, #28]
 8003236:	6013      	str	r3, [r2, #0]
 8003238:	4b5d      	ldr	r3, [pc, #372]	; (80033b0 <xTaskIncrementTick+0x1d4>)
 800323a:	681b      	ldr	r3, [r3, #0]
 800323c:	3301      	adds	r3, #1
 800323e:	4a5c      	ldr	r2, [pc, #368]	; (80033b0 <xTaskIncrementTick+0x1d4>)
 8003240:	6013      	str	r3, [r2, #0]
 8003242:	f000 fb73 	bl	800392c <prvResetNextTaskUnblockTime>
 8003246:	4b5b      	ldr	r3, [pc, #364]	; (80033b4 <xTaskIncrementTick+0x1d8>)
 8003248:	681b      	ldr	r3, [r3, #0]
 800324a:	6a3a      	ldr	r2, [r7, #32]
 800324c:	429a      	cmp	r2, r3
 800324e:	f0c0 80a1 	bcc.w	8003394 <xTaskIncrementTick+0x1b8>
 8003252:	4b55      	ldr	r3, [pc, #340]	; (80033a8 <xTaskIncrementTick+0x1cc>)
 8003254:	681b      	ldr	r3, [r3, #0]
 8003256:	681b      	ldr	r3, [r3, #0]
 8003258:	2b00      	cmp	r3, #0
 800325a:	d104      	bne.n	8003266 <xTaskIncrementTick+0x8a>
 800325c:	4b55      	ldr	r3, [pc, #340]	; (80033b4 <xTaskIncrementTick+0x1d8>)
 800325e:	f04f 32ff 	mov.w	r2, #4294967295
 8003262:	601a      	str	r2, [r3, #0]
 8003264:	e096      	b.n	8003394 <xTaskIncrementTick+0x1b8>
 8003266:	4b50      	ldr	r3, [pc, #320]	; (80033a8 <xTaskIncrementTick+0x1cc>)
 8003268:	681b      	ldr	r3, [r3, #0]
 800326a:	68db      	ldr	r3, [r3, #12]
 800326c:	68db      	ldr	r3, [r3, #12]
 800326e:	61bb      	str	r3, [r7, #24]
 8003270:	69bb      	ldr	r3, [r7, #24]
 8003272:	685b      	ldr	r3, [r3, #4]
 8003274:	617b      	str	r3, [r7, #20]
 8003276:	6a3a      	ldr	r2, [r7, #32]
 8003278:	697b      	ldr	r3, [r7, #20]
 800327a:	429a      	cmp	r2, r3
 800327c:	d203      	bcs.n	8003286 <xTaskIncrementTick+0xaa>
 800327e:	4a4d      	ldr	r2, [pc, #308]	; (80033b4 <xTaskIncrementTick+0x1d8>)
 8003280:	697b      	ldr	r3, [r7, #20]
 8003282:	6013      	str	r3, [r2, #0]
 8003284:	e086      	b.n	8003394 <xTaskIncrementTick+0x1b8>
 8003286:	69bb      	ldr	r3, [r7, #24]
 8003288:	695b      	ldr	r3, [r3, #20]
 800328a:	613b      	str	r3, [r7, #16]
 800328c:	69bb      	ldr	r3, [r7, #24]
 800328e:	689b      	ldr	r3, [r3, #8]
 8003290:	69ba      	ldr	r2, [r7, #24]
 8003292:	68d2      	ldr	r2, [r2, #12]
 8003294:	609a      	str	r2, [r3, #8]
 8003296:	69bb      	ldr	r3, [r7, #24]
 8003298:	68db      	ldr	r3, [r3, #12]
 800329a:	69ba      	ldr	r2, [r7, #24]
 800329c:	6892      	ldr	r2, [r2, #8]
 800329e:	605a      	str	r2, [r3, #4]
 80032a0:	693b      	ldr	r3, [r7, #16]
 80032a2:	685a      	ldr	r2, [r3, #4]
 80032a4:	69bb      	ldr	r3, [r7, #24]
 80032a6:	3304      	adds	r3, #4
 80032a8:	429a      	cmp	r2, r3
 80032aa:	d103      	bne.n	80032b4 <xTaskIncrementTick+0xd8>
 80032ac:	69bb      	ldr	r3, [r7, #24]
 80032ae:	68da      	ldr	r2, [r3, #12]
 80032b0:	693b      	ldr	r3, [r7, #16]
 80032b2:	605a      	str	r2, [r3, #4]
 80032b4:	69bb      	ldr	r3, [r7, #24]
 80032b6:	2200      	movs	r2, #0
 80032b8:	615a      	str	r2, [r3, #20]
 80032ba:	693b      	ldr	r3, [r7, #16]
 80032bc:	681b      	ldr	r3, [r3, #0]
 80032be:	1e5a      	subs	r2, r3, #1
 80032c0:	693b      	ldr	r3, [r7, #16]
 80032c2:	601a      	str	r2, [r3, #0]
 80032c4:	69bb      	ldr	r3, [r7, #24]
 80032c6:	6a9b      	ldr	r3, [r3, #40]	; 0x28
 80032c8:	2b00      	cmp	r3, #0
 80032ca:	d01e      	beq.n	800330a <xTaskIncrementTick+0x12e>
 80032cc:	69bb      	ldr	r3, [r7, #24]
 80032ce:	6a9b      	ldr	r3, [r3, #40]	; 0x28
 80032d0:	60fb      	str	r3, [r7, #12]
 80032d2:	69bb      	ldr	r3, [r7, #24]
 80032d4:	69db      	ldr	r3, [r3, #28]
 80032d6:	69ba      	ldr	r2, [r7, #24]
 80032d8:	6a12      	ldr	r2, [r2, #32]
 80032da:	609a      	str	r2, [r3, #8]
 80032dc:	69bb      	ldr	r3, [r7, #24]
 80032de:	6a1b      	ldr	r3, [r3, #32]
 80032e0:	69ba      	ldr	r2, [r7, #24]
 80032e2:	69d2      	ldr	r2, [r2, #28]
 80032e4:	605a      	str	r2, [r3, #4]
 80032e6:	68fb      	ldr	r3, [r7, #12]
 80032e8:	685a      	ldr	r2, [r3, #4]
 80032ea:	69bb      	ldr	r3, [r7, #24]
 80032ec:	3318      	adds	r3, #24
 80032ee:	429a      	cmp	r2, r3
 80032f0:	d103      	bne.n	80032fa <xTaskIncrementTick+0x11e>
 80032f2:	69bb      	ldr	r3, [r7, #24]
 80032f4:	6a1a      	ldr	r2, [r3, #32]
 80032f6:	68fb      	ldr	r3, [r7, #12]
 80032f8:	605a      	str	r2, [r3, #4]
 80032fa:	69bb      	ldr	r3, [r7, #24]
 80032fc:	2200      	movs	r2, #0
 80032fe:	629a      	str	r2, [r3, #40]	; 0x28
 8003300:	68fb      	ldr	r3, [r7, #12]
 8003302:	681b      	ldr	r3, [r3, #0]
 8003304:	1e5a      	subs	r2, r3, #1
 8003306:	68fb      	ldr	r3, [r7, #12]
 8003308:	601a      	str	r2, [r3, #0]
 800330a:	69bb      	ldr	r3, [r7, #24]
 800330c:	6adb      	ldr	r3, [r3, #44]	; 0x2c
 800330e:	2201      	movs	r2, #1
 8003310:	409a      	lsls	r2, r3
 8003312:	4b29      	ldr	r3, [pc, #164]	; (80033b8 <xTaskIncrementTick+0x1dc>)
 8003314:	681b      	ldr	r3, [r3, #0]
 8003316:	4313      	orrs	r3, r2
 8003318:	4a27      	ldr	r2, [pc, #156]	; (80033b8 <xTaskIncrementTick+0x1dc>)
 800331a:	6013      	str	r3, [r2, #0]
 800331c:	69bb      	ldr	r3, [r7, #24]
 800331e:	6ada      	ldr	r2, [r3, #44]	; 0x2c
 8003320:	4926      	ldr	r1, [pc, #152]	; (80033bc <xTaskIncrementTick+0x1e0>)
 8003322:	4613      	mov	r3, r2
 8003324:	009b      	lsls	r3, r3, #2
 8003326:	4413      	add	r3, r2
 8003328:	009b      	lsls	r3, r3, #2
 800332a:	440b      	add	r3, r1
 800332c:	3304      	adds	r3, #4
 800332e:	681b      	ldr	r3, [r3, #0]
 8003330:	60bb      	str	r3, [r7, #8]
 8003332:	69bb      	ldr	r3, [r7, #24]
 8003334:	68ba      	ldr	r2, [r7, #8]
 8003336:	609a      	str	r2, [r3, #8]
 8003338:	68bb      	ldr	r3, [r7, #8]
 800333a:	689a      	ldr	r2, [r3, #8]
 800333c:	69bb      	ldr	r3, [r7, #24]
 800333e:	60da      	str	r2, [r3, #12]
 8003340:	68bb      	ldr	r3, [r7, #8]
 8003342:	689b      	ldr	r3, [r3, #8]
 8003344:	69ba      	ldr	r2, [r7, #24]
 8003346:	3204      	adds	r2, #4
 8003348:	605a      	str	r2, [r3, #4]
 800334a:	69bb      	ldr	r3, [r7, #24]
 800334c:	1d1a      	adds	r2, r3, #4
 800334e:	68bb      	ldr	r3, [r7, #8]
 8003350:	609a      	str	r2, [r3, #8]
 8003352:	69bb      	ldr	r3, [r7, #24]
 8003354:	6ada      	ldr	r2, [r3, #44]	; 0x2c
 8003356:	4613      	mov	r3, r2
 8003358:	009b      	lsls	r3, r3, #2
 800335a:	4413      	add	r3, r2
 800335c:	009b      	lsls	r3, r3, #2
 800335e:	4a17      	ldr	r2, [pc, #92]	; (80033bc <xTaskIncrementTick+0x1e0>)
 8003360:	441a      	add	r2, r3
 8003362:	69bb      	ldr	r3, [r7, #24]
 8003364:	615a      	str	r2, [r3, #20]
 8003366:	69bb      	ldr	r3, [r7, #24]
 8003368:	6ada      	ldr	r2, [r3, #44]	; 0x2c
 800336a:	4914      	ldr	r1, [pc, #80]	; (80033bc <xTaskIncrementTick+0x1e0>)
 800336c:	4613      	mov	r3, r2
 800336e:	009b      	lsls	r3, r3, #2
 8003370:	4413      	add	r3, r2
 8003372:	009b      	lsls	r3, r3, #2
 8003374:	440b      	add	r3, r1
 8003376:	681b      	ldr	r3, [r3, #0]
 8003378:	1c59      	adds	r1, r3, #1
 800337a:	4810      	ldr	r0, [pc, #64]	; (80033bc <xTaskIncrementTick+0x1e0>)
 800337c:	4613      	mov	r3, r2
 800337e:	009b      	lsls	r3, r3, #2
 8003380:	4413      	add	r3, r2
 8003382:	009b      	lsls	r3, r3, #2
 8003384:	4403      	add	r3, r0
 8003386:	6019      	str	r1, [r3, #0]
 8003388:	e763      	b.n	8003252 <xTaskIncrementTick+0x76>
 800338a:	4b0d      	ldr	r3, [pc, #52]	; (80033c0 <xTaskIncrementTick+0x1e4>)
 800338c:	681b      	ldr	r3, [r3, #0]
 800338e:	3301      	adds	r3, #1
 8003390:	4a0b      	ldr	r2, [pc, #44]	; (80033c0 <xTaskIncrementTick+0x1e4>)
 8003392:	6013      	str	r3, [r2, #0]
 8003394:	6a7b      	ldr	r3, [r7, #36]	; 0x24
 8003396:	4618      	mov	r0, r3
 8003398:	3728      	adds	r7, #40	; 0x28
 800339a:	46bd      	mov	sp, r7
 800339c:	bd80      	pop	{r7, pc}
 800339e:	bf00      	nop
 80033a0:	2000ca34 	.word	0x2000ca34
 80033a4:	2000ca10 	.word	0x2000ca10
 80033a8:	2000c9c4 	.word	0x2000c9c4
 80033ac:	2000c9c8 	.word	0x2000c9c8
 80033b0:	2000ca24 	.word	0x2000ca24
 80033b4:	2000ca2c 	.word	0x2000ca2c
 80033b8:	2000ca14 	.word	0x2000ca14
 80033bc:	2000c8d4 	.word	0x2000c8d4
 80033c0:	2000ca1c 	.word	0x2000ca1c

080033c4 <vTaskSwitchContext>:
 80033c4:	b480      	push	{r7}
 80033c6:	b087      	sub	sp, #28
 80033c8:	af00      	add	r7, sp, #0
 80033ca:	4b27      	ldr	r3, [pc, #156]	; (8003468 <vTaskSwitchContext+0xa4>)
 80033cc:	681b      	ldr	r3, [r3, #0]
 80033ce:	2b00      	cmp	r3, #0
 80033d0:	d003      	beq.n	80033da <vTaskSwitchContext+0x16>
 80033d2:	4b26      	ldr	r3, [pc, #152]	; (800346c <vTaskSwitchContext+0xa8>)
 80033d4:	2201      	movs	r2, #1
 80033d6:	601a      	str	r2, [r3, #0]
 80033d8:	e03f      	b.n	800345a <vTaskSwitchContext+0x96>
 80033da:	4b24      	ldr	r3, [pc, #144]	; (800346c <vTaskSwitchContext+0xa8>)
 80033dc:	2200      	movs	r2, #0
 80033de:	601a      	str	r2, [r3, #0]
 80033e0:	4b23      	ldr	r3, [pc, #140]	; (8003470 <vTaskSwitchContext+0xac>)
 80033e2:	681b      	ldr	r3, [r3, #0]
 80033e4:	60fb      	str	r3, [r7, #12]
 80033e6:	68fb      	ldr	r3, [r7, #12]
 80033e8:	fab3 f383 	clz	r3, r3
 80033ec:	72fb      	strb	r3, [r7, #11]
 80033ee:	7afb      	ldrb	r3, [r7, #11]
 80033f0:	f1c3 031f 	rsb	r3, r3, #31
 80033f4:	617b      	str	r3, [r7, #20]
 80033f6:	491f      	ldr	r1, [pc, #124]	; (8003474 <vTaskSwitchContext+0xb0>)
 80033f8:	697a      	ldr	r2, [r7, #20]
 80033fa:	4613      	mov	r3, r2
 80033fc:	009b      	lsls	r3, r3, #2
 80033fe:	4413      	add	r3, r2
 8003400:	009b      	lsls	r3, r3, #2
 8003402:	440b      	add	r3, r1
 8003404:	681b      	ldr	r3, [r3, #0]
 8003406:	2b00      	cmp	r3, #0
 8003408:	d10a      	bne.n	8003420 <vTaskSwitchContext+0x5c>
 800340a:	f04f 0350 	mov.w	r3, #80	; 0x50
 800340e:	f383 8811 	msr	BASEPRI, r3
 8003412:	f3bf 8f6f 	isb	sy
 8003416:	f3bf 8f4f 	dsb	sy
 800341a:	607b      	str	r3, [r7, #4]
 800341c:	bf00      	nop
 800341e:	e7fe      	b.n	800341e <vTaskSwitchContext+0x5a>
 8003420:	697a      	ldr	r2, [r7, #20]
 8003422:	4613      	mov	r3, r2
 8003424:	009b      	lsls	r3, r3, #2
 8003426:	4413      	add	r3, r2
 8003428:	009b      	lsls	r3, r3, #2
 800342a:	4a12      	ldr	r2, [pc, #72]	; (8003474 <vTaskSwitchContext+0xb0>)
 800342c:	4413      	add	r3, r2
 800342e:	613b      	str	r3, [r7, #16]
 8003430:	693b      	ldr	r3, [r7, #16]
 8003432:	685b      	ldr	r3, [r3, #4]
 8003434:	685a      	ldr	r2, [r3, #4]
 8003436:	693b      	ldr	r3, [r7, #16]
 8003438:	605a      	str	r2, [r3, #4]
 800343a:	693b      	ldr	r3, [r7, #16]
 800343c:	685a      	ldr	r2, [r3, #4]
 800343e:	693b      	ldr	r3, [r7, #16]
 8003440:	3308      	adds	r3, #8
 8003442:	429a      	cmp	r2, r3
 8003444:	d104      	bne.n	8003450 <vTaskSwitchContext+0x8c>
 8003446:	693b      	ldr	r3, [r7, #16]
 8003448:	685b      	ldr	r3, [r3, #4]
 800344a:	685a      	ldr	r2, [r3, #4]
 800344c:	693b      	ldr	r3, [r7, #16]
 800344e:	605a      	str	r2, [r3, #4]
 8003450:	693b      	ldr	r3, [r7, #16]
 8003452:	685b      	ldr	r3, [r3, #4]
 8003454:	68db      	ldr	r3, [r3, #12]
 8003456:	4a08      	ldr	r2, [pc, #32]	; (8003478 <vTaskSwitchContext+0xb4>)
 8003458:	6013      	str	r3, [r2, #0]
 800345a:	bf00      	nop
 800345c:	371c      	adds	r7, #28
 800345e:	46bd      	mov	sp, r7
 8003460:	f85d 7b04 	ldr.w	r7, [sp], #4
 8003464:	4770      	bx	lr
 8003466:	bf00      	nop
 8003468:	2000ca34 	.word	0x2000ca34
 800346c:	2000ca20 	.word	0x2000ca20
 8003470:	2000ca14 	.word	0x2000ca14
 8003474:	2000c8d4 	.word	0x2000c8d4
 8003478:	2000c8d0 	.word	0x2000c8d0

0800347c <vTaskPlaceOnEventList>:
 800347c:	b580      	push	{r7, lr}
 800347e:	b084      	sub	sp, #16
 8003480:	af00      	add	r7, sp, #0
 8003482:	6078      	str	r0, [r7, #4]
 8003484:	6039      	str	r1, [r7, #0]
 8003486:	687b      	ldr	r3, [r7, #4]
 8003488:	2b00      	cmp	r3, #0
 800348a:	d10a      	bne.n	80034a2 <vTaskPlaceOnEventList+0x26>
 800348c:	f04f 0350 	mov.w	r3, #80	; 0x50
 8003490:	f383 8811 	msr	BASEPRI, r3
 8003494:	f3bf 8f6f 	isb	sy
 8003498:	f3bf 8f4f 	dsb	sy
 800349c:	60fb      	str	r3, [r7, #12]
 800349e:	bf00      	nop
 80034a0:	e7fe      	b.n	80034a0 <vTaskPlaceOnEventList+0x24>
 80034a2:	4b07      	ldr	r3, [pc, #28]	; (80034c0 <vTaskPlaceOnEventList+0x44>)
 80034a4:	681b      	ldr	r3, [r3, #0]
 80034a6:	3318      	adds	r3, #24
 80034a8:	4619      	mov	r1, r3
 80034aa:	6878      	ldr	r0, [r7, #4]
 80034ac:	f7fe fb9d 	bl	8001bea <vListInsert>
 80034b0:	2101      	movs	r1, #1
 80034b2:	6838      	ldr	r0, [r7, #0]
 80034b4:	f000 fa74 	bl	80039a0 <prvAddCurrentTaskToDelayedList>
 80034b8:	bf00      	nop
 80034ba:	3710      	adds	r7, #16
 80034bc:	46bd      	mov	sp, r7
 80034be:	bd80      	pop	{r7, pc}
 80034c0:	2000c8d0 	.word	0x2000c8d0

080034c4 <vTaskPlaceOnEventListRestricted>:
 80034c4:	b580      	push	{r7, lr}
 80034c6:	b086      	sub	sp, #24
 80034c8:	af00      	add	r7, sp, #0
 80034ca:	60f8      	str	r0, [r7, #12]
 80034cc:	60b9      	str	r1, [r7, #8]
 80034ce:	607a      	str	r2, [r7, #4]
 80034d0:	68fb      	ldr	r3, [r7, #12]
 80034d2:	2b00      	cmp	r3, #0
 80034d4:	d10a      	bne.n	80034ec <vTaskPlaceOnEventListRestricted+0x28>
 80034d6:	f04f 0350 	mov.w	r3, #80	; 0x50
 80034da:	f383 8811 	msr	BASEPRI, r3
 80034de:	f3bf 8f6f 	isb	sy
 80034e2:	f3bf 8f4f 	dsb	sy
 80034e6:	613b      	str	r3, [r7, #16]
 80034e8:	bf00      	nop
 80034ea:	e7fe      	b.n	80034ea <vTaskPlaceOnEventListRestricted+0x26>
 80034ec:	68fb      	ldr	r3, [r7, #12]
 80034ee:	685b      	ldr	r3, [r3, #4]
 80034f0:	617b      	str	r3, [r7, #20]
 80034f2:	4b16      	ldr	r3, [pc, #88]	; (800354c <vTaskPlaceOnEventListRestricted+0x88>)
 80034f4:	681b      	ldr	r3, [r3, #0]
 80034f6:	697a      	ldr	r2, [r7, #20]
 80034f8:	61da      	str	r2, [r3, #28]
 80034fa:	4b14      	ldr	r3, [pc, #80]	; (800354c <vTaskPlaceOnEventListRestricted+0x88>)
 80034fc:	681b      	ldr	r3, [r3, #0]
 80034fe:	697a      	ldr	r2, [r7, #20]
 8003500:	6892      	ldr	r2, [r2, #8]
 8003502:	621a      	str	r2, [r3, #32]
 8003504:	4b11      	ldr	r3, [pc, #68]	; (800354c <vTaskPlaceOnEventListRestricted+0x88>)
 8003506:	681a      	ldr	r2, [r3, #0]
 8003508:	697b      	ldr	r3, [r7, #20]
 800350a:	689b      	ldr	r3, [r3, #8]
 800350c:	3218      	adds	r2, #24
 800350e:	605a      	str	r2, [r3, #4]
 8003510:	4b0e      	ldr	r3, [pc, #56]	; (800354c <vTaskPlaceOnEventListRestricted+0x88>)
 8003512:	681b      	ldr	r3, [r3, #0]
 8003514:	f103 0218 	add.w	r2, r3, #24
 8003518:	697b      	ldr	r3, [r7, #20]
 800351a:	609a      	str	r2, [r3, #8]
 800351c:	4b0b      	ldr	r3, [pc, #44]	; (800354c <vTaskPlaceOnEventListRestricted+0x88>)
 800351e:	681b      	ldr	r3, [r3, #0]
 8003520:	68fa      	ldr	r2, [r7, #12]
 8003522:	629a      	str	r2, [r3, #40]	; 0x28
 8003524:	68fb      	ldr	r3, [r7, #12]
 8003526:	681b      	ldr	r3, [r3, #0]
 8003528:	1c5a      	adds	r2, r3, #1
 800352a:	68fb      	ldr	r3, [r7, #12]
 800352c:	601a      	str	r2, [r3, #0]
 800352e:	687b      	ldr	r3, [r7, #4]
 8003530:	2b00      	cmp	r3, #0
 8003532:	d002      	beq.n	800353a <vTaskPlaceOnEventListRestricted+0x76>
 8003534:	f04f 33ff 	mov.w	r3, #4294967295
 8003538:	60bb      	str	r3, [r7, #8]
 800353a:	6879      	ldr	r1, [r7, #4]
 800353c:	68b8      	ldr	r0, [r7, #8]
 800353e:	f000 fa2f 	bl	80039a0 <prvAddCurrentTaskToDelayedList>
 8003542:	bf00      	nop
 8003544:	3718      	adds	r7, #24
 8003546:	46bd      	mov	sp, r7
 8003548:	bd80      	pop	{r7, pc}
 800354a:	bf00      	nop
 800354c:	2000c8d0 	.word	0x2000c8d0

08003550 <xTaskRemoveFromEventList>:
 8003550:	b480      	push	{r7}
 8003552:	b08b      	sub	sp, #44	; 0x2c
 8003554:	af00      	add	r7, sp, #0
 8003556:	6078      	str	r0, [r7, #4]
 8003558:	687b      	ldr	r3, [r7, #4]
 800355a:	68db      	ldr	r3, [r3, #12]
 800355c:	68db      	ldr	r3, [r3, #12]
 800355e:	623b      	str	r3, [r7, #32]
 8003560:	6a3b      	ldr	r3, [r7, #32]
 8003562:	2b00      	cmp	r3, #0
 8003564:	d10a      	bne.n	800357c <xTaskRemoveFromEventList+0x2c>
 8003566:	f04f 0350 	mov.w	r3, #80	; 0x50
 800356a:	f383 8811 	msr	BASEPRI, r3
 800356e:	f3bf 8f6f 	isb	sy
 8003572:	f3bf 8f4f 	dsb	sy
 8003576:	60fb      	str	r3, [r7, #12]
 8003578:	bf00      	nop
 800357a:	e7fe      	b.n	800357a <xTaskRemoveFromEventList+0x2a>
 800357c:	6a3b      	ldr	r3, [r7, #32]
 800357e:	6a9b      	ldr	r3, [r3, #40]	; 0x28
 8003580:	61fb      	str	r3, [r7, #28]
 8003582:	6a3b      	ldr	r3, [r7, #32]
 8003584:	69db      	ldr	r3, [r3, #28]
 8003586:	6a3a      	ldr	r2, [r7, #32]
 8003588:	6a12      	ldr	r2, [r2, #32]
 800358a:	609a      	str	r2, [r3, #8]
 800358c:	6a3b      	ldr	r3, [r7, #32]
 800358e:	6a1b      	ldr	r3, [r3, #32]
 8003590:	6a3a      	ldr	r2, [r7, #32]
 8003592:	69d2      	ldr	r2, [r2, #28]
 8003594:	605a      	str	r2, [r3, #4]
 8003596:	69fb      	ldr	r3, [r7, #28]
 8003598:	685a      	ldr	r2, [r3, #4]
 800359a:	6a3b      	ldr	r3, [r7, #32]
 800359c:	3318      	adds	r3, #24
 800359e:	429a      	cmp	r2, r3
 80035a0:	d103      	bne.n	80035aa <xTaskRemoveFromEventList+0x5a>
 80035a2:	6a3b      	ldr	r3, [r7, #32]
 80035a4:	6a1a      	ldr	r2, [r3, #32]
 80035a6:	69fb      	ldr	r3, [r7, #28]
 80035a8:	605a      	str	r2, [r3, #4]
 80035aa:	6a3b      	ldr	r3, [r7, #32]
 80035ac:	2200      	movs	r2, #0
 80035ae:	629a      	str	r2, [r3, #40]	; 0x28
 80035b0:	69fb      	ldr	r3, [r7, #28]
 80035b2:	681b      	ldr	r3, [r3, #0]
 80035b4:	1e5a      	subs	r2, r3, #1
 80035b6:	69fb      	ldr	r3, [r7, #28]
 80035b8:	601a      	str	r2, [r3, #0]
 80035ba:	4b4a      	ldr	r3, [pc, #296]	; (80036e4 <xTaskRemoveFromEventList+0x194>)
 80035bc:	681b      	ldr	r3, [r3, #0]
 80035be:	2b00      	cmp	r3, #0
 80035c0:	d15e      	bne.n	8003680 <xTaskRemoveFromEventList+0x130>
 80035c2:	6a3b      	ldr	r3, [r7, #32]
 80035c4:	695b      	ldr	r3, [r3, #20]
 80035c6:	617b      	str	r3, [r7, #20]
 80035c8:	6a3b      	ldr	r3, [r7, #32]
 80035ca:	689b      	ldr	r3, [r3, #8]
 80035cc:	6a3a      	ldr	r2, [r7, #32]
 80035ce:	68d2      	ldr	r2, [r2, #12]
 80035d0:	609a      	str	r2, [r3, #8]
 80035d2:	6a3b      	ldr	r3, [r7, #32]
 80035d4:	68db      	ldr	r3, [r3, #12]
 80035d6:	6a3a      	ldr	r2, [r7, #32]
 80035d8:	6892      	ldr	r2, [r2, #8]
 80035da:	605a      	str	r2, [r3, #4]
 80035dc:	697b      	ldr	r3, [r7, #20]
 80035de:	685a      	ldr	r2, [r3, #4]
 80035e0:	6a3b      	ldr	r3, [r7, #32]
 80035e2:	3304      	adds	r3, #4
 80035e4:	429a      	cmp	r2, r3
 80035e6:	d103      	bne.n	80035f0 <xTaskRemoveFromEventList+0xa0>
 80035e8:	6a3b      	ldr	r3, [r7, #32]
 80035ea:	68da      	ldr	r2, [r3, #12]
 80035ec:	697b      	ldr	r3, [r7, #20]
 80035ee:	605a      	str	r2, [r3, #4]
 80035f0:	6a3b      	ldr	r3, [r7, #32]
 80035f2:	2200      	movs	r2, #0
 80035f4:	615a      	str	r2, [r3, #20]
 80035f6:	697b      	ldr	r3, [r7, #20]
 80035f8:	681b      	ldr	r3, [r3, #0]
 80035fa:	1e5a      	subs	r2, r3, #1
 80035fc:	697b      	ldr	r3, [r7, #20]
 80035fe:	601a      	str	r2, [r3, #0]
 8003600:	6a3b      	ldr	r3, [r7, #32]
 8003602:	6adb      	ldr	r3, [r3, #44]	; 0x2c
 8003604:	2201      	movs	r2, #1
 8003606:	409a      	lsls	r2, r3
 8003608:	4b37      	ldr	r3, [pc, #220]	; (80036e8 <xTaskRemoveFromEventList+0x198>)
 800360a:	681b      	ldr	r3, [r3, #0]
 800360c:	4313      	orrs	r3, r2
 800360e:	4a36      	ldr	r2, [pc, #216]	; (80036e8 <xTaskRemoveFromEventList+0x198>)
 8003610:	6013      	str	r3, [r2, #0]
 8003612:	6a3b      	ldr	r3, [r7, #32]
 8003614:	6ada      	ldr	r2, [r3, #44]	; 0x2c
 8003616:	4935      	ldr	r1, [pc, #212]	; (80036ec <xTaskRemoveFromEventList+0x19c>)
 8003618:	4613      	mov	r3, r2
 800361a:	009b      	lsls	r3, r3, #2
 800361c:	4413      	add	r3, r2
 800361e:	009b      	lsls	r3, r3, #2
 8003620:	440b      	add	r3, r1
 8003622:	3304      	adds	r3, #4
 8003624:	681b      	ldr	r3, [r3, #0]
 8003626:	613b      	str	r3, [r7, #16]
 8003628:	6a3b      	ldr	r3, [r7, #32]
 800362a:	693a      	ldr	r2, [r7, #16]
 800362c:	609a      	str	r2, [r3, #8]
 800362e:	693b      	ldr	r3, [r7, #16]
 8003630:	689a      	ldr	r2, [r3, #8]
 8003632:	6a3b      	ldr	r3, [r7, #32]
 8003634:	60da      	str	r2, [r3, #12]
 8003636:	693b      	ldr	r3, [r7, #16]
 8003638:	689b      	ldr	r3, [r3, #8]
 800363a:	6a3a      	ldr	r2, [r7, #32]
 800363c:	3204      	adds	r2, #4
 800363e:	605a      	str	r2, [r3, #4]
 8003640:	6a3b      	ldr	r3, [r7, #32]
 8003642:	1d1a      	adds	r2, r3, #4
 8003644:	693b      	ldr	r3, [r7, #16]
 8003646:	609a      	str	r2, [r3, #8]
 8003648:	6a3b      	ldr	r3, [r7, #32]
 800364a:	6ada      	ldr	r2, [r3, #44]	; 0x2c
 800364c:	4613      	mov	r3, r2
 800364e:	009b      	lsls	r3, r3, #2
 8003650:	4413      	add	r3, r2
 8003652:	009b      	lsls	r3, r3, #2
 8003654:	4a25      	ldr	r2, [pc, #148]	; (80036ec <xTaskRemoveFromEventList+0x19c>)
 8003656:	441a      	add	r2, r3
 8003658:	6a3b      	ldr	r3, [r7, #32]
 800365a:	615a      	str	r2, [r3, #20]
 800365c:	6a3b      	ldr	r3, [r7, #32]
 800365e:	6ada      	ldr	r2, [r3, #44]	; 0x2c
 8003660:	4922      	ldr	r1, [pc, #136]	; (80036ec <xTaskRemoveFromEventList+0x19c>)
 8003662:	4613      	mov	r3, r2
 8003664:	009b      	lsls	r3, r3, #2
 8003666:	4413      	add	r3, r2
 8003668:	009b      	lsls	r3, r3, #2
 800366a:	440b      	add	r3, r1
 800366c:	681b      	ldr	r3, [r3, #0]
 800366e:	1c59      	adds	r1, r3, #1
 8003670:	481e      	ldr	r0, [pc, #120]	; (80036ec <xTaskRemoveFromEventList+0x19c>)
 8003672:	4613      	mov	r3, r2
 8003674:	009b      	lsls	r3, r3, #2
 8003676:	4413      	add	r3, r2
 8003678:	009b      	lsls	r3, r3, #2
 800367a:	4403      	add	r3, r0
 800367c:	6019      	str	r1, [r3, #0]
 800367e:	e01b      	b.n	80036b8 <xTaskRemoveFromEventList+0x168>
 8003680:	4b1b      	ldr	r3, [pc, #108]	; (80036f0 <xTaskRemoveFromEventList+0x1a0>)
 8003682:	685b      	ldr	r3, [r3, #4]
 8003684:	61bb      	str	r3, [r7, #24]
 8003686:	6a3b      	ldr	r3, [r7, #32]
 8003688:	69ba      	ldr	r2, [r7, #24]
 800368a:	61da      	str	r2, [r3, #28]
 800368c:	69bb      	ldr	r3, [r7, #24]
 800368e:	689a      	ldr	r2, [r3, #8]
 8003690:	6a3b      	ldr	r3, [r7, #32]
 8003692:	621a      	str	r2, [r3, #32]
 8003694:	69bb      	ldr	r3, [r7, #24]
 8003696:	689b      	ldr	r3, [r3, #8]
 8003698:	6a3a      	ldr	r2, [r7, #32]
 800369a:	3218      	adds	r2, #24
 800369c:	605a      	str	r2, [r3, #4]
 800369e:	6a3b      	ldr	r3, [r7, #32]
 80036a0:	f103 0218 	add.w	r2, r3, #24
 80036a4:	69bb      	ldr	r3, [r7, #24]
 80036a6:	609a      	str	r2, [r3, #8]
 80036a8:	6a3b      	ldr	r3, [r7, #32]
 80036aa:	4a11      	ldr	r2, [pc, #68]	; (80036f0 <xTaskRemoveFromEventList+0x1a0>)
 80036ac:	629a      	str	r2, [r3, #40]	; 0x28
 80036ae:	4b10      	ldr	r3, [pc, #64]	; (80036f0 <xTaskRemoveFromEventList+0x1a0>)
 80036b0:	681b      	ldr	r3, [r3, #0]
 80036b2:	3301      	adds	r3, #1
 80036b4:	4a0e      	ldr	r2, [pc, #56]	; (80036f0 <xTaskRemoveFromEventList+0x1a0>)
 80036b6:	6013      	str	r3, [r2, #0]
 80036b8:	6a3b      	ldr	r3, [r7, #32]
 80036ba:	6ada      	ldr	r2, [r3, #44]	; 0x2c
 80036bc:	4b0d      	ldr	r3, [pc, #52]	; (80036f4 <xTaskRemoveFromEventList+0x1a4>)
 80036be:	681b      	ldr	r3, [r3, #0]
 80036c0:	6adb      	ldr	r3, [r3, #44]	; 0x2c
 80036c2:	429a      	cmp	r2, r3
 80036c4:	d905      	bls.n	80036d2 <xTaskRemoveFromEventList+0x182>
 80036c6:	2301      	movs	r3, #1
 80036c8:	627b      	str	r3, [r7, #36]	; 0x24
 80036ca:	4b0b      	ldr	r3, [pc, #44]	; (80036f8 <xTaskRemoveFromEventList+0x1a8>)
 80036cc:	2201      	movs	r2, #1
 80036ce:	601a      	str	r2, [r3, #0]
 80036d0:	e001      	b.n	80036d6 <xTaskRemoveFromEventList+0x186>
 80036d2:	2300      	movs	r3, #0
 80036d4:	627b      	str	r3, [r7, #36]	; 0x24
 80036d6:	6a7b      	ldr	r3, [r7, #36]	; 0x24
 80036d8:	4618      	mov	r0, r3
 80036da:	372c      	adds	r7, #44	; 0x2c
 80036dc:	46bd      	mov	sp, r7
 80036de:	f85d 7b04 	ldr.w	r7, [sp], #4
 80036e2:	4770      	bx	lr
 80036e4:	2000ca34 	.word	0x2000ca34
 80036e8:	2000ca14 	.word	0x2000ca14
 80036ec:	2000c8d4 	.word	0x2000c8d4
 80036f0:	2000c9cc 	.word	0x2000c9cc
 80036f4:	2000c8d0 	.word	0x2000c8d0
 80036f8:	2000ca20 	.word	0x2000ca20

080036fc <vTaskInternalSetTimeOutState>:
 80036fc:	b480      	push	{r7}
 80036fe:	b083      	sub	sp, #12
 8003700:	af00      	add	r7, sp, #0
 8003702:	6078      	str	r0, [r7, #4]
 8003704:	4b06      	ldr	r3, [pc, #24]	; (8003720 <vTaskInternalSetTimeOutState+0x24>)
 8003706:	681a      	ldr	r2, [r3, #0]
 8003708:	687b      	ldr	r3, [r7, #4]
 800370a:	601a      	str	r2, [r3, #0]
 800370c:	4b05      	ldr	r3, [pc, #20]	; (8003724 <vTaskInternalSetTimeOutState+0x28>)
 800370e:	681a      	ldr	r2, [r3, #0]
 8003710:	687b      	ldr	r3, [r7, #4]
 8003712:	605a      	str	r2, [r3, #4]
 8003714:	bf00      	nop
 8003716:	370c      	adds	r7, #12
 8003718:	46bd      	mov	sp, r7
 800371a:	f85d 7b04 	ldr.w	r7, [sp], #4
 800371e:	4770      	bx	lr
 8003720:	2000ca24 	.word	0x2000ca24
 8003724:	2000ca10 	.word	0x2000ca10

08003728 <xTaskCheckForTimeOut>:
 8003728:	b580      	push	{r7, lr}
 800372a:	b088      	sub	sp, #32
 800372c:	af00      	add	r7, sp, #0
 800372e:	6078      	str	r0, [r7, #4]
 8003730:	6039      	str	r1, [r7, #0]
 8003732:	687b      	ldr	r3, [r7, #4]
 8003734:	2b00      	cmp	r3, #0
 8003736:	d10a      	bne.n	800374e <xTaskCheckForTimeOut+0x26>
 8003738:	f04f 0350 	mov.w	r3, #80	; 0x50
 800373c:	f383 8811 	msr	BASEPRI, r3
 8003740:	f3bf 8f6f 	isb	sy
 8003744:	f3bf 8f4f 	dsb	sy
 8003748:	613b      	str	r3, [r7, #16]
 800374a:	bf00      	nop
 800374c:	e7fe      	b.n	800374c <xTaskCheckForTimeOut+0x24>
 800374e:	683b      	ldr	r3, [r7, #0]
 8003750:	2b00      	cmp	r3, #0
 8003752:	d10a      	bne.n	800376a <xTaskCheckForTimeOut+0x42>
 8003754:	f04f 0350 	mov.w	r3, #80	; 0x50
 8003758:	f383 8811 	msr	BASEPRI, r3
 800375c:	f3bf 8f6f 	isb	sy
 8003760:	f3bf 8f4f 	dsb	sy
 8003764:	60fb      	str	r3, [r7, #12]
 8003766:	bf00      	nop
 8003768:	e7fe      	b.n	8003768 <xTaskCheckForTimeOut+0x40>
 800376a:	f7fe fe3d 	bl	80023e8 <vPortEnterCritical>
 800376e:	4b1f      	ldr	r3, [pc, #124]	; (80037ec <xTaskCheckForTimeOut+0xc4>)
 8003770:	681b      	ldr	r3, [r3, #0]
 8003772:	61bb      	str	r3, [r7, #24]
 8003774:	687b      	ldr	r3, [r7, #4]
 8003776:	685b      	ldr	r3, [r3, #4]
 8003778:	69ba      	ldr	r2, [r7, #24]
 800377a:	1ad3      	subs	r3, r2, r3
 800377c:	617b      	str	r3, [r7, #20]
 800377e:	683b      	ldr	r3, [r7, #0]
 8003780:	681b      	ldr	r3, [r3, #0]
 8003782:	f1b3 3fff 	cmp.w	r3, #4294967295
 8003786:	d102      	bne.n	800378e <xTaskCheckForTimeOut+0x66>
 8003788:	2300      	movs	r3, #0
 800378a:	61fb      	str	r3, [r7, #28]
 800378c:	e026      	b.n	80037dc <xTaskCheckForTimeOut+0xb4>
 800378e:	687b      	ldr	r3, [r7, #4]
 8003790:	681a      	ldr	r2, [r3, #0]
 8003792:	4b17      	ldr	r3, [pc, #92]	; (80037f0 <xTaskCheckForTimeOut+0xc8>)
 8003794:	681b      	ldr	r3, [r3, #0]
 8003796:	429a      	cmp	r2, r3
 8003798:	d00a      	beq.n	80037b0 <xTaskCheckForTimeOut+0x88>
 800379a:	687b      	ldr	r3, [r7, #4]
 800379c:	685b      	ldr	r3, [r3, #4]
 800379e:	69ba      	ldr	r2, [r7, #24]
 80037a0:	429a      	cmp	r2, r3
 80037a2:	d305      	bcc.n	80037b0 <xTaskCheckForTimeOut+0x88>
 80037a4:	2301      	movs	r3, #1
 80037a6:	61fb      	str	r3, [r7, #28]
 80037a8:	683b      	ldr	r3, [r7, #0]
 80037aa:	2200      	movs	r2, #0
 80037ac:	601a      	str	r2, [r3, #0]
 80037ae:	e015      	b.n	80037dc <xTaskCheckForTimeOut+0xb4>
 80037b0:	683b      	ldr	r3, [r7, #0]
 80037b2:	681b      	ldr	r3, [r3, #0]
 80037b4:	697a      	ldr	r2, [r7, #20]
 80037b6:	429a      	cmp	r2, r3
 80037b8:	d20b      	bcs.n	80037d2 <xTaskCheckForTimeOut+0xaa>
 80037ba:	683b      	ldr	r3, [r7, #0]
 80037bc:	681a      	ldr	r2, [r3, #0]
 80037be:	697b      	ldr	r3, [r7, #20]
 80037c0:	1ad2      	subs	r2, r2, r3
 80037c2:	683b      	ldr	r3, [r7, #0]
 80037c4:	601a      	str	r2, [r3, #0]
 80037c6:	6878      	ldr	r0, [r7, #4]
 80037c8:	f7ff ff98 	bl	80036fc <vTaskInternalSetTimeOutState>
 80037cc:	2300      	movs	r3, #0
 80037ce:	61fb      	str	r3, [r7, #28]
 80037d0:	e004      	b.n	80037dc <xTaskCheckForTimeOut+0xb4>
 80037d2:	683b      	ldr	r3, [r7, #0]
 80037d4:	2200      	movs	r2, #0
 80037d6:	601a      	str	r2, [r3, #0]
 80037d8:	2301      	movs	r3, #1
 80037da:	61fb      	str	r3, [r7, #28]
 80037dc:	f7fe fe34 	bl	8002448 <vPortExitCritical>
 80037e0:	69fb      	ldr	r3, [r7, #28]
 80037e2:	4618      	mov	r0, r3
 80037e4:	3720      	adds	r7, #32
 80037e6:	46bd      	mov	sp, r7
 80037e8:	bd80      	pop	{r7, pc}
 80037ea:	bf00      	nop
 80037ec:	2000ca10 	.word	0x2000ca10
 80037f0:	2000ca24 	.word	0x2000ca24

080037f4 <vTaskMissedYield>:
 80037f4:	b480      	push	{r7}
 80037f6:	af00      	add	r7, sp, #0
 80037f8:	4b03      	ldr	r3, [pc, #12]	; (8003808 <vTaskMissedYield+0x14>)
 80037fa:	2201      	movs	r2, #1
 80037fc:	601a      	str	r2, [r3, #0]
 80037fe:	bf00      	nop
 8003800:	46bd      	mov	sp, r7
 8003802:	f85d 7b04 	ldr.w	r7, [sp], #4
 8003806:	4770      	bx	lr
 8003808:	2000ca20 	.word	0x2000ca20

0800380c <prvIdleTask>:
 800380c:	b580      	push	{r7, lr}
 800380e:	b082      	sub	sp, #8
 8003810:	af00      	add	r7, sp, #0
 8003812:	6078      	str	r0, [r7, #4]
 8003814:	f000 f84c 	bl	80038b0 <prvCheckTasksWaitingTermination>
 8003818:	4b04      	ldr	r3, [pc, #16]	; (800382c <prvIdleTask+0x20>)
 800381a:	f04f 5280 	mov.w	r2, #268435456	; 0x10000000
 800381e:	601a      	str	r2, [r3, #0]
 8003820:	f3bf 8f4f 	dsb	sy
 8003824:	f3bf 8f6f 	isb	sy
 8003828:	e7f4      	b.n	8003814 <prvIdleTask+0x8>
 800382a:	bf00      	nop
 800382c:	e000ed04 	.word	0xe000ed04

08003830 <prvInitialiseTaskLists>:
 8003830:	b580      	push	{r7, lr}
 8003832:	b082      	sub	sp, #8
 8003834:	af00      	add	r7, sp, #0
 8003836:	2300      	movs	r3, #0
 8003838:	607b      	str	r3, [r7, #4]
 800383a:	e00c      	b.n	8003856 <prvInitialiseTaskLists+0x26>
 800383c:	687a      	ldr	r2, [r7, #4]
 800383e:	4613      	mov	r3, r2
 8003840:	009b      	lsls	r3, r3, #2
 8003842:	4413      	add	r3, r2
 8003844:	009b      	lsls	r3, r3, #2
 8003846:	4a12      	ldr	r2, [pc, #72]	; (8003890 <prvInitialiseTaskLists+0x60>)
 8003848:	4413      	add	r3, r2
 800384a:	4618      	mov	r0, r3
 800384c:	f7fe f9a0 	bl	8001b90 <vListInitialise>
 8003850:	687b      	ldr	r3, [r7, #4]
 8003852:	3301      	adds	r3, #1
 8003854:	607b      	str	r3, [r7, #4]
 8003856:	687b      	ldr	r3, [r7, #4]
 8003858:	2b09      	cmp	r3, #9
 800385a:	d9ef      	bls.n	800383c <prvInitialiseTaskLists+0xc>
 800385c:	480d      	ldr	r0, [pc, #52]	; (8003894 <prvInitialiseTaskLists+0x64>)
 800385e:	f7fe f997 	bl	8001b90 <vListInitialise>
 8003862:	480d      	ldr	r0, [pc, #52]	; (8003898 <prvInitialiseTaskLists+0x68>)
 8003864:	f7fe f994 	bl	8001b90 <vListInitialise>
 8003868:	480c      	ldr	r0, [pc, #48]	; (800389c <prvInitialiseTaskLists+0x6c>)
 800386a:	f7fe f991 	bl	8001b90 <vListInitialise>
 800386e:	480c      	ldr	r0, [pc, #48]	; (80038a0 <prvInitialiseTaskLists+0x70>)
 8003870:	f7fe f98e 	bl	8001b90 <vListInitialise>
 8003874:	480b      	ldr	r0, [pc, #44]	; (80038a4 <prvInitialiseTaskLists+0x74>)
 8003876:	f7fe f98b 	bl	8001b90 <vListInitialise>
 800387a:	4b0b      	ldr	r3, [pc, #44]	; (80038a8 <prvInitialiseTaskLists+0x78>)
 800387c:	4a05      	ldr	r2, [pc, #20]	; (8003894 <prvInitialiseTaskLists+0x64>)
 800387e:	601a      	str	r2, [r3, #0]
 8003880:	4b0a      	ldr	r3, [pc, #40]	; (80038ac <prvInitialiseTaskLists+0x7c>)
 8003882:	4a05      	ldr	r2, [pc, #20]	; (8003898 <prvInitialiseTaskLists+0x68>)
 8003884:	601a      	str	r2, [r3, #0]
 8003886:	bf00      	nop
 8003888:	3708      	adds	r7, #8
 800388a:	46bd      	mov	sp, r7
 800388c:	bd80      	pop	{r7, pc}
 800388e:	bf00      	nop
 8003890:	2000c8d4 	.word	0x2000c8d4
 8003894:	2000c99c 	.word	0x2000c99c
 8003898:	2000c9b0 	.word	0x2000c9b0
 800389c:	2000c9cc 	.word	0x2000c9cc
 80038a0:	2000c9e0 	.word	0x2000c9e0
 80038a4:	2000c9f8 	.word	0x2000c9f8
 80038a8:	2000c9c4 	.word	0x2000c9c4
 80038ac:	2000c9c8 	.word	0x2000c9c8

080038b0 <prvCheckTasksWaitingTermination>:
 80038b0:	b580      	push	{r7, lr}
 80038b2:	b082      	sub	sp, #8
 80038b4:	af00      	add	r7, sp, #0
 80038b6:	e019      	b.n	80038ec <prvCheckTasksWaitingTermination+0x3c>
 80038b8:	f7fe fd96 	bl	80023e8 <vPortEnterCritical>
 80038bc:	4b10      	ldr	r3, [pc, #64]	; (8003900 <prvCheckTasksWaitingTermination+0x50>)
 80038be:	68db      	ldr	r3, [r3, #12]
 80038c0:	68db      	ldr	r3, [r3, #12]
 80038c2:	607b      	str	r3, [r7, #4]
 80038c4:	687b      	ldr	r3, [r7, #4]
 80038c6:	3304      	adds	r3, #4
 80038c8:	4618      	mov	r0, r3
 80038ca:	f7fe f9c7 	bl	8001c5c <uxListRemove>
 80038ce:	4b0d      	ldr	r3, [pc, #52]	; (8003904 <prvCheckTasksWaitingTermination+0x54>)
 80038d0:	681b      	ldr	r3, [r3, #0]
 80038d2:	3b01      	subs	r3, #1
 80038d4:	4a0b      	ldr	r2, [pc, #44]	; (8003904 <prvCheckTasksWaitingTermination+0x54>)
 80038d6:	6013      	str	r3, [r2, #0]
 80038d8:	4b0b      	ldr	r3, [pc, #44]	; (8003908 <prvCheckTasksWaitingTermination+0x58>)
 80038da:	681b      	ldr	r3, [r3, #0]
 80038dc:	3b01      	subs	r3, #1
 80038de:	4a0a      	ldr	r2, [pc, #40]	; (8003908 <prvCheckTasksWaitingTermination+0x58>)
 80038e0:	6013      	str	r3, [r2, #0]
 80038e2:	f7fe fdb1 	bl	8002448 <vPortExitCritical>
 80038e6:	6878      	ldr	r0, [r7, #4]
 80038e8:	f000 f810 	bl	800390c <prvDeleteTCB>
 80038ec:	4b06      	ldr	r3, [pc, #24]	; (8003908 <prvCheckTasksWaitingTermination+0x58>)
 80038ee:	681b      	ldr	r3, [r3, #0]
 80038f0:	2b00      	cmp	r3, #0
 80038f2:	d1e1      	bne.n	80038b8 <prvCheckTasksWaitingTermination+0x8>
 80038f4:	bf00      	nop
 80038f6:	bf00      	nop
 80038f8:	3708      	adds	r7, #8
 80038fa:	46bd      	mov	sp, r7
 80038fc:	bd80      	pop	{r7, pc}
 80038fe:	bf00      	nop
 8003900:	2000c9e0 	.word	0x2000c9e0
 8003904:	2000ca0c 	.word	0x2000ca0c
 8003908:	2000c9f4 	.word	0x2000c9f4

0800390c <prvDeleteTCB>:
 800390c:	b580      	push	{r7, lr}
 800390e:	b082      	sub	sp, #8
 8003910:	af00      	add	r7, sp, #0
 8003912:	6078      	str	r0, [r7, #4]
 8003914:	687b      	ldr	r3, [r7, #4]
 8003916:	6b1b      	ldr	r3, [r3, #48]	; 0x30
 8003918:	4618      	mov	r0, r3
 800391a:	f7fe f81b 	bl	8001954 <vPortFree>
 800391e:	6878      	ldr	r0, [r7, #4]
 8003920:	f7fe f818 	bl	8001954 <vPortFree>
 8003924:	bf00      	nop
 8003926:	3708      	adds	r7, #8
 8003928:	46bd      	mov	sp, r7
 800392a:	bd80      	pop	{r7, pc}

0800392c <prvResetNextTaskUnblockTime>:
 800392c:	b480      	push	{r7}
 800392e:	af00      	add	r7, sp, #0
 8003930:	4b0a      	ldr	r3, [pc, #40]	; (800395c <prvResetNextTaskUnblockTime+0x30>)
 8003932:	681b      	ldr	r3, [r3, #0]
 8003934:	681b      	ldr	r3, [r3, #0]
 8003936:	2b00      	cmp	r3, #0
 8003938:	d104      	bne.n	8003944 <prvResetNextTaskUnblockTime+0x18>
 800393a:	4b09      	ldr	r3, [pc, #36]	; (8003960 <prvResetNextTaskUnblockTime+0x34>)
 800393c:	f04f 32ff 	mov.w	r2, #4294967295
 8003940:	601a      	str	r2, [r3, #0]
 8003942:	e005      	b.n	8003950 <prvResetNextTaskUnblockTime+0x24>
 8003944:	4b05      	ldr	r3, [pc, #20]	; (800395c <prvResetNextTaskUnblockTime+0x30>)
 8003946:	681b      	ldr	r3, [r3, #0]
 8003948:	68db      	ldr	r3, [r3, #12]
 800394a:	681b      	ldr	r3, [r3, #0]
 800394c:	4a04      	ldr	r2, [pc, #16]	; (8003960 <prvResetNextTaskUnblockTime+0x34>)
 800394e:	6013      	str	r3, [r2, #0]
 8003950:	bf00      	nop
 8003952:	46bd      	mov	sp, r7
 8003954:	f85d 7b04 	ldr.w	r7, [sp], #4
 8003958:	4770      	bx	lr
 800395a:	bf00      	nop
 800395c:	2000c9c4 	.word	0x2000c9c4
 8003960:	2000ca2c 	.word	0x2000ca2c

08003964 <xTaskGetSchedulerState>:
 8003964:	b480      	push	{r7}
 8003966:	b083      	sub	sp, #12
 8003968:	af00      	add	r7, sp, #0
 800396a:	4b0b      	ldr	r3, [pc, #44]	; (8003998 <xTaskGetSchedulerState+0x34>)
 800396c:	681b      	ldr	r3, [r3, #0]
 800396e:	2b00      	cmp	r3, #0
 8003970:	d102      	bne.n	8003978 <xTaskGetSchedulerState+0x14>
 8003972:	2301      	movs	r3, #1
 8003974:	607b      	str	r3, [r7, #4]
 8003976:	e008      	b.n	800398a <xTaskGetSchedulerState+0x26>
 8003978:	4b08      	ldr	r3, [pc, #32]	; (800399c <xTaskGetSchedulerState+0x38>)
 800397a:	681b      	ldr	r3, [r3, #0]
 800397c:	2b00      	cmp	r3, #0
 800397e:	d102      	bne.n	8003986 <xTaskGetSchedulerState+0x22>
 8003980:	2302      	movs	r3, #2
 8003982:	607b      	str	r3, [r7, #4]
 8003984:	e001      	b.n	800398a <xTaskGetSchedulerState+0x26>
 8003986:	2300      	movs	r3, #0
 8003988:	607b      	str	r3, [r7, #4]
 800398a:	687b      	ldr	r3, [r7, #4]
 800398c:	4618      	mov	r0, r3
 800398e:	370c      	adds	r7, #12
 8003990:	46bd      	mov	sp, r7
 8003992:	f85d 7b04 	ldr.w	r7, [sp], #4
 8003996:	4770      	bx	lr
 8003998:	2000ca18 	.word	0x2000ca18
 800399c:	2000ca34 	.word	0x2000ca34

080039a0 <prvAddCurrentTaskToDelayedList>:
 80039a0:	b580      	push	{r7, lr}
 80039a2:	b086      	sub	sp, #24
 80039a4:	af00      	add	r7, sp, #0
 80039a6:	6078      	str	r0, [r7, #4]
 80039a8:	6039      	str	r1, [r7, #0]
 80039aa:	4b36      	ldr	r3, [pc, #216]	; (8003a84 <prvAddCurrentTaskToDelayedList+0xe4>)
 80039ac:	681b      	ldr	r3, [r3, #0]
 80039ae:	617b      	str	r3, [r7, #20]
 80039b0:	4b35      	ldr	r3, [pc, #212]	; (8003a88 <prvAddCurrentTaskToDelayedList+0xe8>)
 80039b2:	681b      	ldr	r3, [r3, #0]
 80039b4:	3304      	adds	r3, #4
 80039b6:	4618      	mov	r0, r3
 80039b8:	f7fe f950 	bl	8001c5c <uxListRemove>
 80039bc:	4603      	mov	r3, r0
 80039be:	2b00      	cmp	r3, #0
 80039c0:	d10b      	bne.n	80039da <prvAddCurrentTaskToDelayedList+0x3a>
 80039c2:	4b31      	ldr	r3, [pc, #196]	; (8003a88 <prvAddCurrentTaskToDelayedList+0xe8>)
 80039c4:	681b      	ldr	r3, [r3, #0]
 80039c6:	6adb      	ldr	r3, [r3, #44]	; 0x2c
 80039c8:	2201      	movs	r2, #1
 80039ca:	fa02 f303 	lsl.w	r3, r2, r3
 80039ce:	43da      	mvns	r2, r3
 80039d0:	4b2e      	ldr	r3, [pc, #184]	; (8003a8c <prvAddCurrentTaskToDelayedList+0xec>)
 80039d2:	681b      	ldr	r3, [r3, #0]
 80039d4:	4013      	ands	r3, r2
 80039d6:	4a2d      	ldr	r2, [pc, #180]	; (8003a8c <prvAddCurrentTaskToDelayedList+0xec>)
 80039d8:	6013      	str	r3, [r2, #0]
 80039da:	687b      	ldr	r3, [r7, #4]
 80039dc:	f1b3 3fff 	cmp.w	r3, #4294967295
 80039e0:	d124      	bne.n	8003a2c <prvAddCurrentTaskToDelayedList+0x8c>
 80039e2:	683b      	ldr	r3, [r7, #0]
 80039e4:	2b00      	cmp	r3, #0
 80039e6:	d021      	beq.n	8003a2c <prvAddCurrentTaskToDelayedList+0x8c>
 80039e8:	4b29      	ldr	r3, [pc, #164]	; (8003a90 <prvAddCurrentTaskToDelayedList+0xf0>)
 80039ea:	685b      	ldr	r3, [r3, #4]
 80039ec:	613b      	str	r3, [r7, #16]
 80039ee:	4b26      	ldr	r3, [pc, #152]	; (8003a88 <prvAddCurrentTaskToDelayedList+0xe8>)
 80039f0:	681b      	ldr	r3, [r3, #0]
 80039f2:	693a      	ldr	r2, [r7, #16]
 80039f4:	609a      	str	r2, [r3, #8]
 80039f6:	4b24      	ldr	r3, [pc, #144]	; (8003a88 <prvAddCurrentTaskToDelayedList+0xe8>)
 80039f8:	681b      	ldr	r3, [r3, #0]
 80039fa:	693a      	ldr	r2, [r7, #16]
 80039fc:	6892      	ldr	r2, [r2, #8]
 80039fe:	60da      	str	r2, [r3, #12]
 8003a00:	4b21      	ldr	r3, [pc, #132]	; (8003a88 <prvAddCurrentTaskToDelayedList+0xe8>)
 8003a02:	681a      	ldr	r2, [r3, #0]
 8003a04:	693b      	ldr	r3, [r7, #16]
 8003a06:	689b      	ldr	r3, [r3, #8]
 8003a08:	3204      	adds	r2, #4
 8003a0a:	605a      	str	r2, [r3, #4]
 8003a0c:	4b1e      	ldr	r3, [pc, #120]	; (8003a88 <prvAddCurrentTaskToDelayedList+0xe8>)
 8003a0e:	681b      	ldr	r3, [r3, #0]
 8003a10:	1d1a      	adds	r2, r3, #4
 8003a12:	693b      	ldr	r3, [r7, #16]
 8003a14:	609a      	str	r2, [r3, #8]
 8003a16:	4b1c      	ldr	r3, [pc, #112]	; (8003a88 <prvAddCurrentTaskToDelayedList+0xe8>)
 8003a18:	681b      	ldr	r3, [r3, #0]
 8003a1a:	4a1d      	ldr	r2, [pc, #116]	; (8003a90 <prvAddCurrentTaskToDelayedList+0xf0>)
 8003a1c:	615a      	str	r2, [r3, #20]
 8003a1e:	4b1c      	ldr	r3, [pc, #112]	; (8003a90 <prvAddCurrentTaskToDelayedList+0xf0>)
 8003a20:	681b      	ldr	r3, [r3, #0]
 8003a22:	3301      	adds	r3, #1
 8003a24:	4a1a      	ldr	r2, [pc, #104]	; (8003a90 <prvAddCurrentTaskToDelayedList+0xf0>)
 8003a26:	6013      	str	r3, [r2, #0]
 8003a28:	bf00      	nop
 8003a2a:	e026      	b.n	8003a7a <prvAddCurrentTaskToDelayedList+0xda>
 8003a2c:	697a      	ldr	r2, [r7, #20]
 8003a2e:	687b      	ldr	r3, [r7, #4]
 8003a30:	4413      	add	r3, r2
 8003a32:	60fb      	str	r3, [r7, #12]
 8003a34:	4b14      	ldr	r3, [pc, #80]	; (8003a88 <prvAddCurrentTaskToDelayedList+0xe8>)
 8003a36:	681b      	ldr	r3, [r3, #0]
 8003a38:	68fa      	ldr	r2, [r7, #12]
 8003a3a:	605a      	str	r2, [r3, #4]
 8003a3c:	68fa      	ldr	r2, [r7, #12]
 8003a3e:	697b      	ldr	r3, [r7, #20]
 8003a40:	429a      	cmp	r2, r3
 8003a42:	d209      	bcs.n	8003a58 <prvAddCurrentTaskToDelayedList+0xb8>
 8003a44:	4b13      	ldr	r3, [pc, #76]	; (8003a94 <prvAddCurrentTaskToDelayedList+0xf4>)
 8003a46:	681a      	ldr	r2, [r3, #0]
 8003a48:	4b0f      	ldr	r3, [pc, #60]	; (8003a88 <prvAddCurrentTaskToDelayedList+0xe8>)
 8003a4a:	681b      	ldr	r3, [r3, #0]
 8003a4c:	3304      	adds	r3, #4
 8003a4e:	4619      	mov	r1, r3
 8003a50:	4610      	mov	r0, r2
 8003a52:	f7fe f8ca 	bl	8001bea <vListInsert>
 8003a56:	e010      	b.n	8003a7a <prvAddCurrentTaskToDelayedList+0xda>
 8003a58:	4b0f      	ldr	r3, [pc, #60]	; (8003a98 <prvAddCurrentTaskToDelayedList+0xf8>)
 8003a5a:	681a      	ldr	r2, [r3, #0]
 8003a5c:	4b0a      	ldr	r3, [pc, #40]	; (8003a88 <prvAddCurrentTaskToDelayedList+0xe8>)
 8003a5e:	681b      	ldr	r3, [r3, #0]
 8003a60:	3304      	adds	r3, #4
 8003a62:	4619      	mov	r1, r3
 8003a64:	4610      	mov	r0, r2
 8003a66:	f7fe f8c0 	bl	8001bea <vListInsert>
 8003a6a:	4b0c      	ldr	r3, [pc, #48]	; (8003a9c <prvAddCurrentTaskToDelayedList+0xfc>)
 8003a6c:	681b      	ldr	r3, [r3, #0]
 8003a6e:	68fa      	ldr	r2, [r7, #12]
 8003a70:	429a      	cmp	r2, r3
 8003a72:	d202      	bcs.n	8003a7a <prvAddCurrentTaskToDelayedList+0xda>
 8003a74:	4a09      	ldr	r2, [pc, #36]	; (8003a9c <prvAddCurrentTaskToDelayedList+0xfc>)
 8003a76:	68fb      	ldr	r3, [r7, #12]
 8003a78:	6013      	str	r3, [r2, #0]
 8003a7a:	bf00      	nop
 8003a7c:	3718      	adds	r7, #24
 8003a7e:	46bd      	mov	sp, r7
 8003a80:	bd80      	pop	{r7, pc}
 8003a82:	bf00      	nop
 8003a84:	2000ca10 	.word	0x2000ca10
 8003a88:	2000c8d0 	.word	0x2000c8d0
 8003a8c:	2000ca14 	.word	0x2000ca14
 8003a90:	2000c9f8 	.word	0x2000c9f8
 8003a94:	2000c9c8 	.word	0x2000c9c8
 8003a98:	2000c9c4 	.word	0x2000c9c4
 8003a9c:	2000ca2c 	.word	0x2000ca2c

08003aa0 <xTimerCreateTimerTask>:
 8003aa0:	b580      	push	{r7, lr}
 8003aa2:	b084      	sub	sp, #16
 8003aa4:	af02      	add	r7, sp, #8
 8003aa6:	2300      	movs	r3, #0
 8003aa8:	607b      	str	r3, [r7, #4]
 8003aaa:	f000 fa47 	bl	8003f3c <prvCheckForValidListAndQueue>
 8003aae:	4b11      	ldr	r3, [pc, #68]	; (8003af4 <xTimerCreateTimerTask+0x54>)
 8003ab0:	681b      	ldr	r3, [r3, #0]
 8003ab2:	2b00      	cmp	r3, #0
 8003ab4:	d00b      	beq.n	8003ace <xTimerCreateTimerTask+0x2e>
 8003ab6:	4b10      	ldr	r3, [pc, #64]	; (8003af8 <xTimerCreateTimerTask+0x58>)
 8003ab8:	9301      	str	r3, [sp, #4]
 8003aba:	2301      	movs	r3, #1
 8003abc:	9300      	str	r3, [sp, #0]
 8003abe:	2300      	movs	r3, #0
 8003ac0:	f44f 7280 	mov.w	r2, #256	; 0x100
 8003ac4:	490d      	ldr	r1, [pc, #52]	; (8003afc <xTimerCreateTimerTask+0x5c>)
 8003ac6:	480e      	ldr	r0, [pc, #56]	; (8003b00 <xTimerCreateTimerTask+0x60>)
 8003ac8:	f7ff f83e 	bl	8002b48 <xTaskCreate>
 8003acc:	6078      	str	r0, [r7, #4]
 8003ace:	687b      	ldr	r3, [r7, #4]
 8003ad0:	2b00      	cmp	r3, #0
 8003ad2:	d10a      	bne.n	8003aea <xTimerCreateTimerTask+0x4a>
 8003ad4:	f04f 0350 	mov.w	r3, #80	; 0x50
 8003ad8:	f383 8811 	msr	BASEPRI, r3
 8003adc:	f3bf 8f6f 	isb	sy
 8003ae0:	f3bf 8f4f 	dsb	sy
 8003ae4:	603b      	str	r3, [r7, #0]
 8003ae6:	bf00      	nop
 8003ae8:	e7fe      	b.n	8003ae8 <xTimerCreateTimerTask+0x48>
 8003aea:	687b      	ldr	r3, [r7, #4]
 8003aec:	4618      	mov	r0, r3
 8003aee:	3708      	adds	r7, #8
 8003af0:	46bd      	mov	sp, r7
 8003af2:	bd80      	pop	{r7, pc}
 8003af4:	2000ca68 	.word	0x2000ca68
 8003af8:	2000ca6c 	.word	0x2000ca6c
 8003afc:	08004090 	.word	0x08004090
 8003b00:	08003ba9 	.word	0x08003ba9

08003b04 <prvReloadTimer>:
 8003b04:	b580      	push	{r7, lr}
 8003b06:	b084      	sub	sp, #16
 8003b08:	af00      	add	r7, sp, #0
 8003b0a:	60f8      	str	r0, [r7, #12]
 8003b0c:	60b9      	str	r1, [r7, #8]
 8003b0e:	607a      	str	r2, [r7, #4]
 8003b10:	e008      	b.n	8003b24 <prvReloadTimer+0x20>
 8003b12:	68fb      	ldr	r3, [r7, #12]
 8003b14:	699b      	ldr	r3, [r3, #24]
 8003b16:	68ba      	ldr	r2, [r7, #8]
 8003b18:	4413      	add	r3, r2
 8003b1a:	60bb      	str	r3, [r7, #8]
 8003b1c:	68fb      	ldr	r3, [r7, #12]
 8003b1e:	6a1b      	ldr	r3, [r3, #32]
 8003b20:	68f8      	ldr	r0, [r7, #12]
 8003b22:	4798      	blx	r3
 8003b24:	68fb      	ldr	r3, [r7, #12]
 8003b26:	699a      	ldr	r2, [r3, #24]
 8003b28:	68bb      	ldr	r3, [r7, #8]
 8003b2a:	18d1      	adds	r1, r2, r3
 8003b2c:	68bb      	ldr	r3, [r7, #8]
 8003b2e:	687a      	ldr	r2, [r7, #4]
 8003b30:	68f8      	ldr	r0, [r7, #12]
 8003b32:	f000 f8dd 	bl	8003cf0 <prvInsertTimerInActiveList>
 8003b36:	4603      	mov	r3, r0
 8003b38:	2b00      	cmp	r3, #0
 8003b3a:	d1ea      	bne.n	8003b12 <prvReloadTimer+0xe>
 8003b3c:	bf00      	nop
 8003b3e:	bf00      	nop
 8003b40:	3710      	adds	r7, #16
 8003b42:	46bd      	mov	sp, r7
 8003b44:	bd80      	pop	{r7, pc}
	...

08003b48 <prvProcessExpiredTimer>:
 8003b48:	b580      	push	{r7, lr}
 8003b4a:	b084      	sub	sp, #16
 8003b4c:	af00      	add	r7, sp, #0
 8003b4e:	6078      	str	r0, [r7, #4]
 8003b50:	6039      	str	r1, [r7, #0]
 8003b52:	4b14      	ldr	r3, [pc, #80]	; (8003ba4 <prvProcessExpiredTimer+0x5c>)
 8003b54:	681b      	ldr	r3, [r3, #0]
 8003b56:	68db      	ldr	r3, [r3, #12]
 8003b58:	68db      	ldr	r3, [r3, #12]
 8003b5a:	60fb      	str	r3, [r7, #12]
 8003b5c:	68fb      	ldr	r3, [r7, #12]
 8003b5e:	3304      	adds	r3, #4
 8003b60:	4618      	mov	r0, r3
 8003b62:	f7fe f87b 	bl	8001c5c <uxListRemove>
 8003b66:	68fb      	ldr	r3, [r7, #12]
 8003b68:	f893 3028 	ldrb.w	r3, [r3, #40]	; 0x28
 8003b6c:	f003 0304 	and.w	r3, r3, #4
 8003b70:	2b00      	cmp	r3, #0
 8003b72:	d005      	beq.n	8003b80 <prvProcessExpiredTimer+0x38>
 8003b74:	683a      	ldr	r2, [r7, #0]
 8003b76:	6879      	ldr	r1, [r7, #4]
 8003b78:	68f8      	ldr	r0, [r7, #12]
 8003b7a:	f7ff ffc3 	bl	8003b04 <prvReloadTimer>
 8003b7e:	e008      	b.n	8003b92 <prvProcessExpiredTimer+0x4a>
 8003b80:	68fb      	ldr	r3, [r7, #12]
 8003b82:	f893 3028 	ldrb.w	r3, [r3, #40]	; 0x28
 8003b86:	f023 0301 	bic.w	r3, r3, #1
 8003b8a:	b2da      	uxtb	r2, r3
 8003b8c:	68fb      	ldr	r3, [r7, #12]
 8003b8e:	f883 2028 	strb.w	r2, [r3, #40]	; 0x28
 8003b92:	68fb      	ldr	r3, [r7, #12]
 8003b94:	6a1b      	ldr	r3, [r3, #32]
 8003b96:	68f8      	ldr	r0, [r7, #12]
 8003b98:	4798      	blx	r3
 8003b9a:	bf00      	nop
 8003b9c:	3710      	adds	r7, #16
 8003b9e:	46bd      	mov	sp, r7
 8003ba0:	bd80      	pop	{r7, pc}
 8003ba2:	bf00      	nop
 8003ba4:	2000ca60 	.word	0x2000ca60

08003ba8 <prvTimerTask>:
 8003ba8:	b580      	push	{r7, lr}
 8003baa:	b084      	sub	sp, #16
 8003bac:	af00      	add	r7, sp, #0
 8003bae:	6078      	str	r0, [r7, #4]
 8003bb0:	f107 0308 	add.w	r3, r7, #8
 8003bb4:	4618      	mov	r0, r3
 8003bb6:	f000 f857 	bl	8003c68 <prvGetNextExpireTime>
 8003bba:	60f8      	str	r0, [r7, #12]
 8003bbc:	68bb      	ldr	r3, [r7, #8]
 8003bbe:	4619      	mov	r1, r3
 8003bc0:	68f8      	ldr	r0, [r7, #12]
 8003bc2:	f000 f803 	bl	8003bcc <prvProcessTimerOrBlockTask>
 8003bc6:	f000 f8d5 	bl	8003d74 <prvProcessReceivedCommands>
 8003bca:	e7f1      	b.n	8003bb0 <prvTimerTask+0x8>

08003bcc <prvProcessTimerOrBlockTask>:
 8003bcc:	b580      	push	{r7, lr}
 8003bce:	b084      	sub	sp, #16
 8003bd0:	af00      	add	r7, sp, #0
 8003bd2:	6078      	str	r0, [r7, #4]
 8003bd4:	6039      	str	r1, [r7, #0]
 8003bd6:	f7ff f9f5 	bl	8002fc4 <vTaskSuspendAll>
 8003bda:	f107 0308 	add.w	r3, r7, #8
 8003bde:	4618      	mov	r0, r3
 8003be0:	f000 f866 	bl	8003cb0 <prvSampleTimeNow>
 8003be4:	60f8      	str	r0, [r7, #12]
 8003be6:	68bb      	ldr	r3, [r7, #8]
 8003be8:	2b00      	cmp	r3, #0
 8003bea:	d130      	bne.n	8003c4e <prvProcessTimerOrBlockTask+0x82>
 8003bec:	683b      	ldr	r3, [r7, #0]
 8003bee:	2b00      	cmp	r3, #0
 8003bf0:	d10a      	bne.n	8003c08 <prvProcessTimerOrBlockTask+0x3c>
 8003bf2:	687a      	ldr	r2, [r7, #4]
 8003bf4:	68fb      	ldr	r3, [r7, #12]
 8003bf6:	429a      	cmp	r2, r3
 8003bf8:	d806      	bhi.n	8003c08 <prvProcessTimerOrBlockTask+0x3c>
 8003bfa:	f7ff f9f1 	bl	8002fe0 <xTaskResumeAll>
 8003bfe:	68f9      	ldr	r1, [r7, #12]
 8003c00:	6878      	ldr	r0, [r7, #4]
 8003c02:	f7ff ffa1 	bl	8003b48 <prvProcessExpiredTimer>
 8003c06:	e024      	b.n	8003c52 <prvProcessTimerOrBlockTask+0x86>
 8003c08:	683b      	ldr	r3, [r7, #0]
 8003c0a:	2b00      	cmp	r3, #0
 8003c0c:	d008      	beq.n	8003c20 <prvProcessTimerOrBlockTask+0x54>
 8003c0e:	4b13      	ldr	r3, [pc, #76]	; (8003c5c <prvProcessTimerOrBlockTask+0x90>)
 8003c10:	681b      	ldr	r3, [r3, #0]
 8003c12:	681b      	ldr	r3, [r3, #0]
 8003c14:	2b00      	cmp	r3, #0
 8003c16:	d101      	bne.n	8003c1c <prvProcessTimerOrBlockTask+0x50>
 8003c18:	2301      	movs	r3, #1
 8003c1a:	e000      	b.n	8003c1e <prvProcessTimerOrBlockTask+0x52>
 8003c1c:	2300      	movs	r3, #0
 8003c1e:	603b      	str	r3, [r7, #0]
 8003c20:	4b0f      	ldr	r3, [pc, #60]	; (8003c60 <prvProcessTimerOrBlockTask+0x94>)
 8003c22:	6818      	ldr	r0, [r3, #0]
 8003c24:	687a      	ldr	r2, [r7, #4]
 8003c26:	68fb      	ldr	r3, [r7, #12]
 8003c28:	1ad3      	subs	r3, r2, r3
 8003c2a:	683a      	ldr	r2, [r7, #0]
 8003c2c:	4619      	mov	r1, r3
 8003c2e:	f7fe ff57 	bl	8002ae0 <vQueueWaitForMessageRestricted>
 8003c32:	f7ff f9d5 	bl	8002fe0 <xTaskResumeAll>
 8003c36:	4603      	mov	r3, r0
 8003c38:	2b00      	cmp	r3, #0
 8003c3a:	d10a      	bne.n	8003c52 <prvProcessTimerOrBlockTask+0x86>
 8003c3c:	4b09      	ldr	r3, [pc, #36]	; (8003c64 <prvProcessTimerOrBlockTask+0x98>)
 8003c3e:	f04f 5280 	mov.w	r2, #268435456	; 0x10000000
 8003c42:	601a      	str	r2, [r3, #0]
 8003c44:	f3bf 8f4f 	dsb	sy
 8003c48:	f3bf 8f6f 	isb	sy
 8003c4c:	e001      	b.n	8003c52 <prvProcessTimerOrBlockTask+0x86>
 8003c4e:	f7ff f9c7 	bl	8002fe0 <xTaskResumeAll>
 8003c52:	bf00      	nop
 8003c54:	3710      	adds	r7, #16
 8003c56:	46bd      	mov	sp, r7
 8003c58:	bd80      	pop	{r7, pc}
 8003c5a:	bf00      	nop
 8003c5c:	2000ca64 	.word	0x2000ca64
 8003c60:	2000ca68 	.word	0x2000ca68
 8003c64:	e000ed04 	.word	0xe000ed04

08003c68 <prvGetNextExpireTime>:
 8003c68:	b480      	push	{r7}
 8003c6a:	b085      	sub	sp, #20
 8003c6c:	af00      	add	r7, sp, #0
 8003c6e:	6078      	str	r0, [r7, #4]
 8003c70:	4b0e      	ldr	r3, [pc, #56]	; (8003cac <prvGetNextExpireTime+0x44>)
 8003c72:	681b      	ldr	r3, [r3, #0]
 8003c74:	681b      	ldr	r3, [r3, #0]
 8003c76:	2b00      	cmp	r3, #0
 8003c78:	d101      	bne.n	8003c7e <prvGetNextExpireTime+0x16>
 8003c7a:	2201      	movs	r2, #1
 8003c7c:	e000      	b.n	8003c80 <prvGetNextExpireTime+0x18>
 8003c7e:	2200      	movs	r2, #0
 8003c80:	687b      	ldr	r3, [r7, #4]
 8003c82:	601a      	str	r2, [r3, #0]
 8003c84:	687b      	ldr	r3, [r7, #4]
 8003c86:	681b      	ldr	r3, [r3, #0]
 8003c88:	2b00      	cmp	r3, #0
 8003c8a:	d105      	bne.n	8003c98 <prvGetNextExpireTime+0x30>
 8003c8c:	4b07      	ldr	r3, [pc, #28]	; (8003cac <prvGetNextExpireTime+0x44>)
 8003c8e:	681b      	ldr	r3, [r3, #0]
 8003c90:	68db      	ldr	r3, [r3, #12]
 8003c92:	681b      	ldr	r3, [r3, #0]
 8003c94:	60fb      	str	r3, [r7, #12]
 8003c96:	e001      	b.n	8003c9c <prvGetNextExpireTime+0x34>
 8003c98:	2300      	movs	r3, #0
 8003c9a:	60fb      	str	r3, [r7, #12]
 8003c9c:	68fb      	ldr	r3, [r7, #12]
 8003c9e:	4618      	mov	r0, r3
 8003ca0:	3714      	adds	r7, #20
 8003ca2:	46bd      	mov	sp, r7
 8003ca4:	f85d 7b04 	ldr.w	r7, [sp], #4
 8003ca8:	4770      	bx	lr
 8003caa:	bf00      	nop
 8003cac:	2000ca60 	.word	0x2000ca60

08003cb0 <prvSampleTimeNow>:
 8003cb0:	b580      	push	{r7, lr}
 8003cb2:	b084      	sub	sp, #16
 8003cb4:	af00      	add	r7, sp, #0
 8003cb6:	6078      	str	r0, [r7, #4]
 8003cb8:	f7ff fa80 	bl	80031bc <xTaskGetTickCount>
 8003cbc:	60f8      	str	r0, [r7, #12]
 8003cbe:	4b0b      	ldr	r3, [pc, #44]	; (8003cec <prvSampleTimeNow+0x3c>)
 8003cc0:	681b      	ldr	r3, [r3, #0]
 8003cc2:	68fa      	ldr	r2, [r7, #12]
 8003cc4:	429a      	cmp	r2, r3
 8003cc6:	d205      	bcs.n	8003cd4 <prvSampleTimeNow+0x24>
 8003cc8:	f000 f912 	bl	8003ef0 <prvSwitchTimerLists>
 8003ccc:	687b      	ldr	r3, [r7, #4]
 8003cce:	2201      	movs	r2, #1
 8003cd0:	601a      	str	r2, [r3, #0]
 8003cd2:	e002      	b.n	8003cda <prvSampleTimeNow+0x2a>
 8003cd4:	687b      	ldr	r3, [r7, #4]
 8003cd6:	2200      	movs	r2, #0
 8003cd8:	601a      	str	r2, [r3, #0]
 8003cda:	4a04      	ldr	r2, [pc, #16]	; (8003cec <prvSampleTimeNow+0x3c>)
 8003cdc:	68fb      	ldr	r3, [r7, #12]
 8003cde:	6013      	str	r3, [r2, #0]
 8003ce0:	68fb      	ldr	r3, [r7, #12]
 8003ce2:	4618      	mov	r0, r3
 8003ce4:	3710      	adds	r7, #16
 8003ce6:	46bd      	mov	sp, r7
 8003ce8:	bd80      	pop	{r7, pc}
 8003cea:	bf00      	nop
 8003cec:	2000ca70 	.word	0x2000ca70

08003cf0 <prvInsertTimerInActiveList>:
 8003cf0:	b580      	push	{r7, lr}
 8003cf2:	b086      	sub	sp, #24
 8003cf4:	af00      	add	r7, sp, #0
 8003cf6:	60f8      	str	r0, [r7, #12]
 8003cf8:	60b9      	str	r1, [r7, #8]
 8003cfa:	607a      	str	r2, [r7, #4]
 8003cfc:	603b      	str	r3, [r7, #0]
 8003cfe:	2300      	movs	r3, #0
 8003d00:	617b      	str	r3, [r7, #20]
 8003d02:	68fb      	ldr	r3, [r7, #12]
 8003d04:	68ba      	ldr	r2, [r7, #8]
 8003d06:	605a      	str	r2, [r3, #4]
 8003d08:	68fb      	ldr	r3, [r7, #12]
 8003d0a:	68fa      	ldr	r2, [r7, #12]
 8003d0c:	611a      	str	r2, [r3, #16]
 8003d0e:	68ba      	ldr	r2, [r7, #8]
 8003d10:	687b      	ldr	r3, [r7, #4]
 8003d12:	429a      	cmp	r2, r3
 8003d14:	d812      	bhi.n	8003d3c <prvInsertTimerInActiveList+0x4c>
 8003d16:	687a      	ldr	r2, [r7, #4]
 8003d18:	683b      	ldr	r3, [r7, #0]
 8003d1a:	1ad2      	subs	r2, r2, r3
 8003d1c:	68fb      	ldr	r3, [r7, #12]
 8003d1e:	699b      	ldr	r3, [r3, #24]
 8003d20:	429a      	cmp	r2, r3
 8003d22:	d302      	bcc.n	8003d2a <prvInsertTimerInActiveList+0x3a>
 8003d24:	2301      	movs	r3, #1
 8003d26:	617b      	str	r3, [r7, #20]
 8003d28:	e01b      	b.n	8003d62 <prvInsertTimerInActiveList+0x72>
 8003d2a:	4b10      	ldr	r3, [pc, #64]	; (8003d6c <prvInsertTimerInActiveList+0x7c>)
 8003d2c:	681a      	ldr	r2, [r3, #0]
 8003d2e:	68fb      	ldr	r3, [r7, #12]
 8003d30:	3304      	adds	r3, #4
 8003d32:	4619      	mov	r1, r3
 8003d34:	4610      	mov	r0, r2
 8003d36:	f7fd ff58 	bl	8001bea <vListInsert>
 8003d3a:	e012      	b.n	8003d62 <prvInsertTimerInActiveList+0x72>
 8003d3c:	687a      	ldr	r2, [r7, #4]
 8003d3e:	683b      	ldr	r3, [r7, #0]
 8003d40:	429a      	cmp	r2, r3
 8003d42:	d206      	bcs.n	8003d52 <prvInsertTimerInActiveList+0x62>
 8003d44:	68ba      	ldr	r2, [r7, #8]
 8003d46:	683b      	ldr	r3, [r7, #0]
 8003d48:	429a      	cmp	r2, r3
 8003d4a:	d302      	bcc.n	8003d52 <prvInsertTimerInActiveList+0x62>
 8003d4c:	2301      	movs	r3, #1
 8003d4e:	617b      	str	r3, [r7, #20]
 8003d50:	e007      	b.n	8003d62 <prvInsertTimerInActiveList+0x72>
 8003d52:	4b07      	ldr	r3, [pc, #28]	; (8003d70 <prvInsertTimerInActiveList+0x80>)
 8003d54:	681a      	ldr	r2, [r3, #0]
 8003d56:	68fb      	ldr	r3, [r7, #12]
 8003d58:	3304      	adds	r3, #4
 8003d5a:	4619      	mov	r1, r3
 8003d5c:	4610      	mov	r0, r2
 8003d5e:	f7fd ff44 	bl	8001bea <vListInsert>
 8003d62:	697b      	ldr	r3, [r7, #20]
 8003d64:	4618      	mov	r0, r3
 8003d66:	3718      	adds	r7, #24
 8003d68:	46bd      	mov	sp, r7
 8003d6a:	bd80      	pop	{r7, pc}
 8003d6c:	2000ca64 	.word	0x2000ca64
 8003d70:	2000ca60 	.word	0x2000ca60

08003d74 <prvProcessReceivedCommands>:
 8003d74:	b580      	push	{r7, lr}
 8003d76:	b088      	sub	sp, #32
 8003d78:	af00      	add	r7, sp, #0
 8003d7a:	e0a6      	b.n	8003eca <prvProcessReceivedCommands+0x156>
 8003d7c:	68bb      	ldr	r3, [r7, #8]
 8003d7e:	2b00      	cmp	r3, #0
 8003d80:	f2c0 80a2 	blt.w	8003ec8 <prvProcessReceivedCommands+0x154>
 8003d84:	693b      	ldr	r3, [r7, #16]
 8003d86:	61fb      	str	r3, [r7, #28]
 8003d88:	69fb      	ldr	r3, [r7, #28]
 8003d8a:	695b      	ldr	r3, [r3, #20]
 8003d8c:	2b00      	cmp	r3, #0
 8003d8e:	d004      	beq.n	8003d9a <prvProcessReceivedCommands+0x26>
 8003d90:	69fb      	ldr	r3, [r7, #28]
 8003d92:	3304      	adds	r3, #4
 8003d94:	4618      	mov	r0, r3
 8003d96:	f7fd ff61 	bl	8001c5c <uxListRemove>
 8003d9a:	1d3b      	adds	r3, r7, #4
 8003d9c:	4618      	mov	r0, r3
 8003d9e:	f7ff ff87 	bl	8003cb0 <prvSampleTimeNow>
 8003da2:	61b8      	str	r0, [r7, #24]
 8003da4:	68bb      	ldr	r3, [r7, #8]
 8003da6:	3b01      	subs	r3, #1
 8003da8:	2b08      	cmp	r3, #8
 8003daa:	f200 808e 	bhi.w	8003eca <prvProcessReceivedCommands+0x156>
 8003dae:	a201      	add	r2, pc, #4	; (adr r2, 8003db4 <prvProcessReceivedCommands+0x40>)
 8003db0:	f852 f023 	ldr.w	pc, [r2, r3, lsl #2]
 8003db4:	08003dd9 	.word	0x08003dd9
 8003db8:	08003dd9 	.word	0x08003dd9
 8003dbc:	08003e41 	.word	0x08003e41
 8003dc0:	08003e55 	.word	0x08003e55
 8003dc4:	08003e9f 	.word	0x08003e9f
 8003dc8:	08003dd9 	.word	0x08003dd9
 8003dcc:	08003dd9 	.word	0x08003dd9
 8003dd0:	08003e41 	.word	0x08003e41
 8003dd4:	08003e55 	.word	0x08003e55
 8003dd8:	69fb      	ldr	r3, [r7, #28]
 8003dda:	f893 3028 	ldrb.w	r3, [r3, #40]	; 0x28
 8003dde:	f043 0301 	orr.w	r3, r3, #1
 8003de2:	b2da      	uxtb	r2, r3
 8003de4:	69fb      	ldr	r3, [r7, #28]
 8003de6:	f883 2028 	strb.w	r2, [r3, #40]	; 0x28
 8003dea:	68fa      	ldr	r2, [r7, #12]
 8003dec:	69fb      	ldr	r3, [r7, #28]
 8003dee:	699b      	ldr	r3, [r3, #24]
 8003df0:	18d1      	adds	r1, r2, r3
 8003df2:	68fb      	ldr	r3, [r7, #12]
 8003df4:	69ba      	ldr	r2, [r7, #24]
 8003df6:	69f8      	ldr	r0, [r7, #28]
 8003df8:	f7ff ff7a 	bl	8003cf0 <prvInsertTimerInActiveList>
 8003dfc:	4603      	mov	r3, r0
 8003dfe:	2b00      	cmp	r3, #0
 8003e00:	d063      	beq.n	8003eca <prvProcessReceivedCommands+0x156>
 8003e02:	69fb      	ldr	r3, [r7, #28]
 8003e04:	f893 3028 	ldrb.w	r3, [r3, #40]	; 0x28
 8003e08:	f003 0304 	and.w	r3, r3, #4
 8003e0c:	2b00      	cmp	r3, #0
 8003e0e:	d009      	beq.n	8003e24 <prvProcessReceivedCommands+0xb0>
 8003e10:	68fa      	ldr	r2, [r7, #12]
 8003e12:	69fb      	ldr	r3, [r7, #28]
 8003e14:	699b      	ldr	r3, [r3, #24]
 8003e16:	4413      	add	r3, r2
 8003e18:	69ba      	ldr	r2, [r7, #24]
 8003e1a:	4619      	mov	r1, r3
 8003e1c:	69f8      	ldr	r0, [r7, #28]
 8003e1e:	f7ff fe71 	bl	8003b04 <prvReloadTimer>
 8003e22:	e008      	b.n	8003e36 <prvProcessReceivedCommands+0xc2>
 8003e24:	69fb      	ldr	r3, [r7, #28]
 8003e26:	f893 3028 	ldrb.w	r3, [r3, #40]	; 0x28
 8003e2a:	f023 0301 	bic.w	r3, r3, #1
 8003e2e:	b2da      	uxtb	r2, r3
 8003e30:	69fb      	ldr	r3, [r7, #28]
 8003e32:	f883 2028 	strb.w	r2, [r3, #40]	; 0x28
 8003e36:	69fb      	ldr	r3, [r7, #28]
 8003e38:	6a1b      	ldr	r3, [r3, #32]
 8003e3a:	69f8      	ldr	r0, [r7, #28]
 8003e3c:	4798      	blx	r3
 8003e3e:	e044      	b.n	8003eca <prvProcessReceivedCommands+0x156>
 8003e40:	69fb      	ldr	r3, [r7, #28]
 8003e42:	f893 3028 	ldrb.w	r3, [r3, #40]	; 0x28
 8003e46:	f023 0301 	bic.w	r3, r3, #1
 8003e4a:	b2da      	uxtb	r2, r3
 8003e4c:	69fb      	ldr	r3, [r7, #28]
 8003e4e:	f883 2028 	strb.w	r2, [r3, #40]	; 0x28
 8003e52:	e03a      	b.n	8003eca <prvProcessReceivedCommands+0x156>
 8003e54:	69fb      	ldr	r3, [r7, #28]
 8003e56:	f893 3028 	ldrb.w	r3, [r3, #40]	; 0x28
 8003e5a:	f043 0301 	orr.w	r3, r3, #1
 8003e5e:	b2da      	uxtb	r2, r3
 8003e60:	69fb      	ldr	r3, [r7, #28]
 8003e62:	f883 2028 	strb.w	r2, [r3, #40]	; 0x28
 8003e66:	68fa      	ldr	r2, [r7, #12]
 8003e68:	69fb      	ldr	r3, [r7, #28]
 8003e6a:	619a      	str	r2, [r3, #24]
 8003e6c:	69fb      	ldr	r3, [r7, #28]
 8003e6e:	699b      	ldr	r3, [r3, #24]
 8003e70:	2b00      	cmp	r3, #0
 8003e72:	d10a      	bne.n	8003e8a <prvProcessReceivedCommands+0x116>
 8003e74:	f04f 0350 	mov.w	r3, #80	; 0x50
 8003e78:	f383 8811 	msr	BASEPRI, r3
 8003e7c:	f3bf 8f6f 	isb	sy
 8003e80:	f3bf 8f4f 	dsb	sy
 8003e84:	617b      	str	r3, [r7, #20]
 8003e86:	bf00      	nop
 8003e88:	e7fe      	b.n	8003e88 <prvProcessReceivedCommands+0x114>
 8003e8a:	69fb      	ldr	r3, [r7, #28]
 8003e8c:	699a      	ldr	r2, [r3, #24]
 8003e8e:	69bb      	ldr	r3, [r7, #24]
 8003e90:	18d1      	adds	r1, r2, r3
 8003e92:	69bb      	ldr	r3, [r7, #24]
 8003e94:	69ba      	ldr	r2, [r7, #24]
 8003e96:	69f8      	ldr	r0, [r7, #28]
 8003e98:	f7ff ff2a 	bl	8003cf0 <prvInsertTimerInActiveList>
 8003e9c:	e015      	b.n	8003eca <prvProcessReceivedCommands+0x156>
 8003e9e:	69fb      	ldr	r3, [r7, #28]
 8003ea0:	f893 3028 	ldrb.w	r3, [r3, #40]	; 0x28
 8003ea4:	f003 0302 	and.w	r3, r3, #2
 8003ea8:	2b00      	cmp	r3, #0
 8003eaa:	d103      	bne.n	8003eb4 <prvProcessReceivedCommands+0x140>
 8003eac:	69f8      	ldr	r0, [r7, #28]
 8003eae:	f7fd fd51 	bl	8001954 <vPortFree>
 8003eb2:	e00a      	b.n	8003eca <prvProcessReceivedCommands+0x156>
 8003eb4:	69fb      	ldr	r3, [r7, #28]
 8003eb6:	f893 3028 	ldrb.w	r3, [r3, #40]	; 0x28
 8003eba:	f023 0301 	bic.w	r3, r3, #1
 8003ebe:	b2da      	uxtb	r2, r3
 8003ec0:	69fb      	ldr	r3, [r7, #28]
 8003ec2:	f883 2028 	strb.w	r2, [r3, #40]	; 0x28
 8003ec6:	e000      	b.n	8003eca <prvProcessReceivedCommands+0x156>
 8003ec8:	bf00      	nop
 8003eca:	4b08      	ldr	r3, [pc, #32]	; (8003eec <prvProcessReceivedCommands+0x178>)
 8003ecc:	681b      	ldr	r3, [r3, #0]
 8003ece:	f107 0108 	add.w	r1, r7, #8
 8003ed2:	2200      	movs	r2, #0
 8003ed4:	4618      	mov	r0, r3
 8003ed6:	f7fe fc53 	bl	8002780 <xQueueReceive>
 8003eda:	4603      	mov	r3, r0
 8003edc:	2b00      	cmp	r3, #0
 8003ede:	f47f af4d 	bne.w	8003d7c <prvProcessReceivedCommands+0x8>
 8003ee2:	bf00      	nop
 8003ee4:	bf00      	nop
 8003ee6:	3720      	adds	r7, #32
 8003ee8:	46bd      	mov	sp, r7
 8003eea:	bd80      	pop	{r7, pc}
 8003eec:	2000ca68 	.word	0x2000ca68

08003ef0 <prvSwitchTimerLists>:
 8003ef0:	b580      	push	{r7, lr}
 8003ef2:	b082      	sub	sp, #8
 8003ef4:	af00      	add	r7, sp, #0
 8003ef6:	e009      	b.n	8003f0c <prvSwitchTimerLists+0x1c>
 8003ef8:	4b0e      	ldr	r3, [pc, #56]	; (8003f34 <prvSwitchTimerLists+0x44>)
 8003efa:	681b      	ldr	r3, [r3, #0]
 8003efc:	68db      	ldr	r3, [r3, #12]
 8003efe:	681b      	ldr	r3, [r3, #0]
 8003f00:	603b      	str	r3, [r7, #0]
 8003f02:	f04f 31ff 	mov.w	r1, #4294967295
 8003f06:	6838      	ldr	r0, [r7, #0]
 8003f08:	f7ff fe1e 	bl	8003b48 <prvProcessExpiredTimer>
 8003f0c:	4b09      	ldr	r3, [pc, #36]	; (8003f34 <prvSwitchTimerLists+0x44>)
 8003f0e:	681b      	ldr	r3, [r3, #0]
 8003f10:	681b      	ldr	r3, [r3, #0]
 8003f12:	2b00      	cmp	r3, #0
 8003f14:	d1f0      	bne.n	8003ef8 <prvSwitchTimerLists+0x8>
 8003f16:	4b07      	ldr	r3, [pc, #28]	; (8003f34 <prvSwitchTimerLists+0x44>)
 8003f18:	681b      	ldr	r3, [r3, #0]
 8003f1a:	607b      	str	r3, [r7, #4]
 8003f1c:	4b06      	ldr	r3, [pc, #24]	; (8003f38 <prvSwitchTimerLists+0x48>)
 8003f1e:	681b      	ldr	r3, [r3, #0]
 8003f20:	4a04      	ldr	r2, [pc, #16]	; (8003f34 <prvSwitchTimerLists+0x44>)
 8003f22:	6013      	str	r3, [r2, #0]
 8003f24:	4a04      	ldr	r2, [pc, #16]	; (8003f38 <prvSwitchTimerLists+0x48>)
 8003f26:	687b      	ldr	r3, [r7, #4]
 8003f28:	6013      	str	r3, [r2, #0]
 8003f2a:	bf00      	nop
 8003f2c:	3708      	adds	r7, #8
 8003f2e:	46bd      	mov	sp, r7
 8003f30:	bd80      	pop	{r7, pc}
 8003f32:	bf00      	nop
 8003f34:	2000ca60 	.word	0x2000ca60
 8003f38:	2000ca64 	.word	0x2000ca64

08003f3c <prvCheckForValidListAndQueue>:
 8003f3c:	b580      	push	{r7, lr}
 8003f3e:	af00      	add	r7, sp, #0
 8003f40:	f7fe fa52 	bl	80023e8 <vPortEnterCritical>
 8003f44:	4b12      	ldr	r3, [pc, #72]	; (8003f90 <prvCheckForValidListAndQueue+0x54>)
 8003f46:	681b      	ldr	r3, [r3, #0]
 8003f48:	2b00      	cmp	r3, #0
 8003f4a:	d11d      	bne.n	8003f88 <prvCheckForValidListAndQueue+0x4c>
 8003f4c:	4811      	ldr	r0, [pc, #68]	; (8003f94 <prvCheckForValidListAndQueue+0x58>)
 8003f4e:	f7fd fe1f 	bl	8001b90 <vListInitialise>
 8003f52:	4811      	ldr	r0, [pc, #68]	; (8003f98 <prvCheckForValidListAndQueue+0x5c>)
 8003f54:	f7fd fe1c 	bl	8001b90 <vListInitialise>
 8003f58:	4b10      	ldr	r3, [pc, #64]	; (8003f9c <prvCheckForValidListAndQueue+0x60>)
 8003f5a:	4a0e      	ldr	r2, [pc, #56]	; (8003f94 <prvCheckForValidListAndQueue+0x58>)
 8003f5c:	601a      	str	r2, [r3, #0]
 8003f5e:	4b10      	ldr	r3, [pc, #64]	; (8003fa0 <prvCheckForValidListAndQueue+0x64>)
 8003f60:	4a0d      	ldr	r2, [pc, #52]	; (8003f98 <prvCheckForValidListAndQueue+0x5c>)
 8003f62:	601a      	str	r2, [r3, #0]
 8003f64:	2200      	movs	r2, #0
 8003f66:	210c      	movs	r1, #12
 8003f68:	200a      	movs	r0, #10
 8003f6a:	f7fe fb97 	bl	800269c <xQueueGenericCreate>
 8003f6e:	4603      	mov	r3, r0
 8003f70:	4a07      	ldr	r2, [pc, #28]	; (8003f90 <prvCheckForValidListAndQueue+0x54>)
 8003f72:	6013      	str	r3, [r2, #0]
 8003f74:	4b06      	ldr	r3, [pc, #24]	; (8003f90 <prvCheckForValidListAndQueue+0x54>)
 8003f76:	681b      	ldr	r3, [r3, #0]
 8003f78:	2b00      	cmp	r3, #0
 8003f7a:	d005      	beq.n	8003f88 <prvCheckForValidListAndQueue+0x4c>
 8003f7c:	4b04      	ldr	r3, [pc, #16]	; (8003f90 <prvCheckForValidListAndQueue+0x54>)
 8003f7e:	681b      	ldr	r3, [r3, #0]
 8003f80:	4908      	ldr	r1, [pc, #32]	; (8003fa4 <prvCheckForValidListAndQueue+0x68>)
 8003f82:	4618      	mov	r0, r3
 8003f84:	f7fe fd5e 	bl	8002a44 <vQueueAddToRegistry>
 8003f88:	f7fe fa5e 	bl	8002448 <vPortExitCritical>
 8003f8c:	bf00      	nop
 8003f8e:	bd80      	pop	{r7, pc}
 8003f90:	2000ca68 	.word	0x2000ca68
 8003f94:	2000ca38 	.word	0x2000ca38
 8003f98:	2000ca4c 	.word	0x2000ca4c
 8003f9c:	2000ca60 	.word	0x2000ca60
 8003fa0:	2000ca64 	.word	0x2000ca64
 8003fa4:	08004098 	.word	0x08004098

08003fa8 <Reset_Handler>:

  .section .text.Reset_Handler
  .weak Reset_Handler
  .type Reset_Handler, %function
Reset_Handler:
  ldr   r0, =_estack
 8003fa8:	480d      	ldr	r0, [pc, #52]	; (8003fe0 <LoopForever+0x2>)
  mov   sp, r0          /* set stack pointer */
 8003faa:	4685      	mov	sp, r0
/* Call the clock system initialization function.*/
  bl  SystemInit
 8003fac:	f3af 8000 	nop.w

/* Copy the data segment initializers from flash to SRAM */
  ldr r0, =_sdata
 8003fb0:	480c      	ldr	r0, [pc, #48]	; (8003fe4 <LoopForever+0x6>)
  ldr r1, =_edata
 8003fb2:	490d      	ldr	r1, [pc, #52]	; (8003fe8 <LoopForever+0xa>)
  ldr r2, =_sidata
 8003fb4:	4a0d      	ldr	r2, [pc, #52]	; (8003fec <LoopForever+0xe>)
  movs r3, #0
 8003fb6:	2300      	movs	r3, #0
  b LoopCopyDataInit
 8003fb8:	e002      	b.n	8003fc0 <LoopCopyDataInit>

08003fba <CopyDataInit>:

CopyDataInit:
  ldr r4, [r2, r3]
 8003fba:	58d4      	ldr	r4, [r2, r3]
  str r4, [r0, r3]
 8003fbc:	50c4      	str	r4, [r0, r3]
  adds r3, r3, #4
 8003fbe:	3304      	adds	r3, #4

08003fc0 <LoopCopyDataInit>:

LoopCopyDataInit:
  adds r4, r0, r3
 8003fc0:	18c4      	adds	r4, r0, r3
  cmp r4, r1
 8003fc2:	428c      	cmp	r4, r1
  bcc CopyDataInit
 8003fc4:	d3f9      	bcc.n	8003fba <CopyDataInit>

/* Zero fill the bss segment. */
  ldr r2, =_sbss
 8003fc6:	4a0a      	ldr	r2, [pc, #40]	; (8003ff0 <LoopForever+0x12>)
  ldr r4, =_ebss
 8003fc8:	4c0a      	ldr	r4, [pc, #40]	; (8003ff4 <LoopForever+0x16>)
  movs r3, #0
 8003fca:	2300      	movs	r3, #0
  b LoopFillZerobss
 8003fcc:	e001      	b.n	8003fd2 <LoopFillZerobss>

08003fce <FillZerobss>:

FillZerobss:
  str  r3, [r2]
 8003fce:	6013      	str	r3, [r2, #0]
  adds r2, r2, #4
 8003fd0:	3204      	adds	r2, #4

08003fd2 <LoopFillZerobss>:

LoopFillZerobss:
  cmp r2, r4
 8003fd2:	42a2      	cmp	r2, r4
  bcc FillZerobss
 8003fd4:	d3fb      	bcc.n	8003fce <FillZerobss>

/* Call static constructors */
  bl __libc_init_array
 8003fd6:	f000 f811 	bl	8003ffc <__libc_init_array>
/* Call the application's entry point.*/
  bl main
 8003fda:	f7fd ffcf 	bl	8001f7c <main>

08003fde <LoopForever>:

LoopForever:
    b LoopForever
 8003fde:	e7fe      	b.n	8003fde <LoopForever>
  ldr   r0, =_estack
 8003fe0:	20010000 	.word	0x20010000
  ldr r0, =_sdata
 8003fe4:	20000000 	.word	0x20000000
  ldr r1, =_edata
 8003fe8:	20000010 	.word	0x20000010
  ldr r2, =_sidata
 8003fec:	080040d8 	.word	0x080040d8
  ldr r2, =_sbss
 8003ff0:	20000010 	.word	0x20000010
  ldr r4, =_ebss
 8003ff4:	2000ca74 	.word	0x2000ca74

08003ff8 <ADC_IRQHandler>:
 * @retval : None
*/
  .section .text.Default_Handler,"ax",%progbits
Default_Handler:
Infinite_Loop:
  b Infinite_Loop
 8003ff8:	e7fe      	b.n	8003ff8 <ADC_IRQHandler>
	...

08003ffc <__libc_init_array>:
 8003ffc:	b570      	push	{r4, r5, r6, lr}
 8003ffe:	4d0d      	ldr	r5, [pc, #52]	; (8004034 <__libc_init_array+0x38>)
 8004000:	4c0d      	ldr	r4, [pc, #52]	; (8004038 <__libc_init_array+0x3c>)
 8004002:	1b64      	subs	r4, r4, r5
 8004004:	10a4      	asrs	r4, r4, #2
 8004006:	2600      	movs	r6, #0
 8004008:	42a6      	cmp	r6, r4
 800400a:	d109      	bne.n	8004020 <__libc_init_array+0x24>
 800400c:	4d0b      	ldr	r5, [pc, #44]	; (800403c <__libc_init_array+0x40>)
 800400e:	4c0c      	ldr	r4, [pc, #48]	; (8004040 <__libc_init_array+0x44>)
 8004010:	f000 f82e 	bl	8004070 <_init>
 8004014:	1b64      	subs	r4, r4, r5
 8004016:	10a4      	asrs	r4, r4, #2
 8004018:	2600      	movs	r6, #0
 800401a:	42a6      	cmp	r6, r4
 800401c:	d105      	bne.n	800402a <__libc_init_array+0x2e>
 800401e:	bd70      	pop	{r4, r5, r6, pc}
 8004020:	f855 3b04 	ldr.w	r3, [r5], #4
 8004024:	4798      	blx	r3
 8004026:	3601      	adds	r6, #1
 8004028:	e7ee      	b.n	8004008 <__libc_init_array+0xc>
 800402a:	f855 3b04 	ldr.w	r3, [r5], #4
 800402e:	4798      	blx	r3
 8004030:	3601      	adds	r6, #1
 8004032:	e7f2      	b.n	800401a <__libc_init_array+0x1e>
 8004034:	080040d0 	.word	0x080040d0
 8004038:	080040d0 	.word	0x080040d0
 800403c:	080040d0 	.word	0x080040d0
 8004040:	080040d4 	.word	0x080040d4

08004044 <memcpy>:
 8004044:	440a      	add	r2, r1
 8004046:	4291      	cmp	r1, r2
 8004048:	f100 33ff 	add.w	r3, r0, #4294967295
 800404c:	d100      	bne.n	8004050 <memcpy+0xc>
 800404e:	4770      	bx	lr
 8004050:	b510      	push	{r4, lr}
 8004052:	f811 4b01 	ldrb.w	r4, [r1], #1
 8004056:	f803 4f01 	strb.w	r4, [r3, #1]!
 800405a:	4291      	cmp	r1, r2
 800405c:	d1f9      	bne.n	8004052 <memcpy+0xe>
 800405e:	bd10      	pop	{r4, pc}

08004060 <memset>:
 8004060:	4402      	add	r2, r0
 8004062:	4603      	mov	r3, r0
 8004064:	4293      	cmp	r3, r2
 8004066:	d100      	bne.n	800406a <memset+0xa>
 8004068:	4770      	bx	lr
 800406a:	f803 1b01 	strb.w	r1, [r3], #1
 800406e:	e7f9      	b.n	8004064 <memset+0x4>

08004070 <_init>:
 8004070:	b5f8      	push	{r3, r4, r5, r6, r7, lr}
 8004072:	bf00      	nop
 8004074:	bcf8      	pop	{r3, r4, r5, r6, r7}
 8004076:	bc08      	pop	{r3}
 8004078:	469e      	mov	lr, r3
 800407a:	4770      	bx	lr

0800407c <_fini>:
 800407c:	b5f8      	push	{r3, r4, r5, r6, r7, lr}
 800407e:	bf00      	nop
 8004080:	bcf8      	pop	{r3, r4, r5, r6, r7}
 8004082:	bc08      	pop	{r3}
 8004084:	469e      	mov	lr, r3
 8004086:	4770      	bx	lr
